libias-audio-configparser.so.4:_Z18getXmlAttributePtrB5cxx11P8_xmlNodePKc
libias-audio-configparser.so.4:_Z18getXmlChildNodePtrP8_xmlNodePKc
libias-audio-configparser.so.4:_Z20getXmlChildNodeCountP8_xmlNode
libias-audio-configparser.so.4:_Z5stouiRKNSt7__cxx1112basic_stringIcSt11char_traitsIcESaIcEEEPmi
libias-audio-configparser.so.4:_ZN8IasAudio11parseConfigEPNS_9IasSmartXEPKc
libias-audio-configparser.so.4:_ZN8IasAudio11toClockTypeERKNSt7__cxx1112basic_stringIcSt11char_traitsIcESaIcEEE
libias-audio-configparser.so.4:_ZN8IasAudio12toDataFormatERKNSt7__cxx1112basic_stringIcSt11char_traitsIcESaIcEEE
libias-audio-configparser.so.4:_ZN8IasAudio14toXmlClockTypeERKNSt7__cxx1112basic_stringIcSt11char_traitsIcESaIcEEE
libias-audio-configparser.so.4:_ZN8IasAudio15toXmlDataFormatERKNSt7__cxx1112basic_stringIcSt11char_traitsIcESaIcEEE
libias-audio-configparser.so.4:_ZN8IasAudio16parseSinkDevicesEPNS_9IasISetupEP8_xmlNode
libias-audio-configparser.so.4:_ZN8IasAudio17IasConfigPipeline12initPipelineEPNS_9IasISetupEP8_xmlNode
libias-audio-configparser.so.4:_ZN8IasAudio17IasConfigPipeline20getPipelineInputPinsEv
libias-audio-configparser.so.4:_ZN8IasAudio17IasConfigPipeline21getPipelineOutputPinsEv
libias-audio-configparser.so.4:_ZN8IasAudio17IasConfigPipeline25getPipelineInputPinParamsEv
libias-audio-configparser.so.4:_ZN8IasAudio17IasConfigPipeline26getPipelineOutputPinParamsEv
libias-audio-configparser.so.4:_ZN8IasAudio17IasConfigPipelineC1Ev
libias-audio-configparser.so.4:_ZN8IasAudio17IasConfigPipelineC2Ev
libias-audio-configparser.so.4:_ZN8IasAudio17IasConfigPipelineD1Ev
libias-audio-configparser.so.4:_ZN8IasAudio17IasConfigPipelineD2Ev
libias-audio-configparser.so.4:_ZN8IasAudio17parseRoutingLinksEPNS_11IasIRoutingEP8_xmlNode
libias-audio-configparser.so.4:_ZN8IasAudio18parseSourceDevicesEPNS_9IasISetupEP8_xmlNode
libias-audio-configparser.so.4:_ZN8IasAudio18toAudioPinLinkTypeERKNSt7__cxx1112basic_stringIcSt11char_traitsIcESaIcEEE
libias-audio-configparser.so.4:_ZN8IasAudio19IasConfigSinkDevice12getSinkPortsEv
libias-audio-configparser.so.4:_ZN8IasAudio19IasConfigSinkDevice13setSinkParamsEP8_xmlNode
libias-audio-configparser.so.4:_ZN8IasAudio19IasConfigSinkDevice16setSinkDevicePtrESt10shared_ptrINS_18IasAudioSinkDeviceEE
libias-audio-configparser.so.4:_ZN8IasAudio19IasConfigSinkDevice17getSinkPortParamsEv
libias-audio-configparser.so.4:_ZN8IasAudio19IasConfigSinkDevice17setSinkPortParamsEPNS_9IasISetupEP8_xmlNode
libias-audio-configparser.so.4:_ZN8IasAudio19IasConfigSinkDevice17setZonePortParamsEPNS_9IasISetupEP8_xmlNodeS4_
libias-audio-configparser.so.4:_ZN8IasAudio19IasConfigSinkDevice21createLinkRoutingZoneEPNS_9IasISetupE
libias-audio-configparser.so.4:_ZN8IasAudio19IasConfigSinkDevice21getMyRoutingZonePortsEv
libias-audio-configparser.so.4:_ZN8IasAudio19IasConfigSinkDevice24incrementSinkPortCounterEv
libias-audio-configparser.so.4:_ZN8IasAudio19IasConfigSinkDevice24incrementZonePortCounterEv
libias-audio-configparser.so.4:_ZN8IasAudio19IasConfigSinkDevice24setRoutingZoneParamsNameENSt7__cxx1112basic_stringIcSt11char_traitsIcESaIcEEE
libias-audio-configparser.so.4:_ZN8IasAudio19IasConfigSinkDevice26getMyRoutingZonePortParamsEv
libias-audio-configparser.so.4:_ZN8IasAudio19IasConfigSinkDeviceC1Ei
libias-audio-configparser.so.4:_ZN8IasAudio19IasConfigSinkDeviceC2Ei
libias-audio-configparser.so.4:_ZN8IasAudio19IasConfigSinkDeviceD1Ev
libias-audio-configparser.so.4:_ZN8IasAudio19IasConfigSinkDeviceD2Ev
libias-audio-configparser.so.4:_ZN8IasAudio20IasSmartXDebugFacade10getVersionB5cxx11Ev
libias-audio-configparser.so.4:_ZN8IasAudio20IasSmartXDebugFacade13getParametersERKNSt7__cxx1112basic_stringIcSt11char_traitsIcESaIcEEERNS_13IasPropertiesE
libias-audio-configparser.so.4:_ZN8IasAudio20IasSmartXDebugFacade13setParametersERKNSt7__cxx1112basic_stringIcSt11char_traitsIcESaIcEEERKNS_13IasPropertiesE
libias-audio-configparser.so.4:_ZN8IasAudio20IasSmartXDebugFacade14getSmartxLinksEP8_xmlNodePNS_9IasISetupE
libias-audio-configparser.so.4:_ZN8IasAudio20IasSmartXDebugFacade14getSmartxSinksEP8_xmlNodePNS_9IasISetupE
libias-audio-configparser.so.4:_ZN8IasAudio20IasSmartXDebugFacade16getSmartxSourcesEP8_xmlNodePNS_9IasISetupE
libias-audio-configparser.so.4:_ZN8IasAudio20IasSmartXDebugFacade17getSmartxPipelineESt10shared_ptrINS_11IasPipelineEEP8_xmlNodePNS_9IasISetupE
libias-audio-configparser.so.4:_ZN8IasAudio20IasSmartXDebugFacade17getSmartxTopologyERNSt7__cxx1112basic_stringIcSt11char_traitsIcESaIcEEE
libias-audio-configparser.so.4:_ZN8IasAudio20IasSmartXDebugFacade21getSmartxRoutingZonesEP8_xmlNodePNS_9IasISetupE
libias-audio-configparser.so.4:_ZN8IasAudio20IasSmartXDebugFacade24getSmartxProcessingLinksEP8_xmlNodeSt10shared_ptrINS_11IasPipelineEE
libias-audio-configparser.so.4:_ZN8IasAudio20IasSmartXDebugFacade26getSmartxProcessingModulesEP8_xmlNodeSt10shared_ptrINS_11IasPipelineEEPNS_9IasISetupE
libias-audio-configparser.so.4:_ZN8IasAudio20IasSmartXDebugFacade35getSmartxProcessingModulePropertiesEP8_xmlNodeSt10shared_ptrINS_19IasProcessingModuleEEPNS_9IasISetupE
libias-audio-configparser.so.4:_ZN8IasAudio20IasSmartXDebugFacadeC1ERPNS_9IasSmartXE
libias-audio-configparser.so.4:_ZN8IasAudio20IasSmartXDebugFacadeC2ERPNS_9IasSmartXE
libias-audio-configparser.so.4:_ZN8IasAudio20IasSmartXDebugFacadeD0Ev
libias-audio-configparser.so.4:_ZN8IasAudio20IasSmartXDebugFacadeD1Ev
libias-audio-configparser.so.4:_ZN8IasAudio20IasSmartXDebugFacadeD2Ev
libias-audio-configparser.so.4:_ZN8IasAudio21IasConfigSourceDevice15setSourceParamsEP8_xmlNode
libias-audio-configparser.so.4:_ZN8IasAudio21IasConfigSourceDevice18setSourceDevicePtrESt10shared_ptrINS_20IasAudioSourceDeviceEE
libias-audio-configparser.so.4:_ZN8IasAudio21IasConfigSourceDevice19setSourcePortParamsEPNS_9IasISetupEP8_xmlNode
libias-audio-configparser.so.4:_ZN8IasAudio21IasConfigSourceDevice26incrementSourcePortCounterEv
libias-audio-configparser.so.4:_ZN8IasAudio21IasConfigSourceDeviceC1Ei
libias-audio-configparser.so.4:_ZN8IasAudio21IasConfigSourceDeviceC2Ei
libias-audio-configparser.so.4:_ZN8IasAudio21IasConfigSourceDeviceD1Ev
libias-audio-configparser.so.4:_ZN8IasAudio21IasConfigSourceDeviceD2Ev
libias-audio-configparser.so.4:_ZN8IasAudio25IasConfigProcessingModule13getModulePinsEv
libias-audio-configparser.so.4:_ZN8IasAudio25IasConfigProcessingModule17setScalerPropertyERKNSt7__cxx1112basic_stringIcSt11char_traitsIcESaIcEEES8_S8_
libias-audio-configparser.so.4:_ZN8IasAudio25IasConfigProcessingModule17setVectorPropertyERKNSt7__cxx1112basic_stringIcSt11char_traitsIcESaIcEEES8_P8_xmlNode
libias-audio-configparser.so.4:_ZN8IasAudio25IasConfigProcessingModule18getModulePinParamsEv
libias-audio-configparser.so.4:_ZN8IasAudio25IasConfigProcessingModule20initProcessingModuleEPNS_9IasISetupESt10shared_ptrINS_11IasPipelineEEP8_xmlNode
libias-audio-configparser.so.4:_ZN8IasAudio25IasConfigProcessingModuleC1Ev
libias-audio-configparser.so.4:_ZN8IasAudio25IasConfigProcessingModuleC2Ev
libias-audio-configparser.so.4:_ZN8IasAudio25IasConfigProcessingModuleD1Ev
libias-audio-configparser.so.4:_ZN8IasAudio25IasConfigProcessingModuleD2Ev
libias-audio-configparser.so.4:_ZN8IasAudio8toStringB5cxx11ERKNS_21IasConfigParserResultE
libias-audio-configparser.so.4:_ZNK8IasAudio17IasConfigPipeline14getPipelinePtrEv
libias-audio-configparser.so.4:_ZNK8IasAudio19IasConfigSinkDevice16getMyRoutingZoneEv
libias-audio-configparser.so.4:_ZNK8IasAudio19IasConfigSinkDevice19getSinkDeviceParamsEv
libias-audio-configparser.so.4:_ZNK8IasAudio19IasConfigSinkDevice20getRoutingZoneParamsEv
libias-audio-configparser.so.4:_ZNK8IasAudio21IasConfigSourceDevice21getSourceDeviceParamsEv
libias-audio-smartx.so.4:_ZN3tbb10strict_ppl16concurrent_queueIN8IasAudio15IasSmartXClient12IasEventItemENS_23cache_aligned_allocatorIS4_EEE19move_construct_itemEPS4_PKv
libias-audio-smartx.so.4:_ZN3tbb10strict_ppl16concurrent_queueIN8IasAudio20IasProbingQueueEntryENS_23cache_aligned_allocatorIS3_EEE19copy_construct_itemEPS3_PKv
libias-audio-smartx.so.4:_ZN3tbb10strict_ppl16concurrent_queueISt4pairISt10shared_ptrIN8IasAudio13IasBufferTaskEENS4_15IasSwitchMatrix19IasBufferTaskActionEENS_23cache_aligned_allocatorIS9_EEE19move_construct_itemEPS9_PKv
libias-audio-smartx.so.4:_ZN3tbb10strict_ppl16concurrent_queueISt4pairISt10shared_ptrIN8IasAudio18IasSwitchMatrixJobEENS4_13IasBufferTask12IasJobActionEENS_23cache_aligned_allocatorIS9_EEE19copy_construct_itemEPS9_PKv
libias-audio-smartx.so.4:_ZN5boost12interprocess9ipcdetail19internal_mutex_lockINS0_11scoped_lockINS0_18interprocess_mutexEEEE4lockEv
libias-audio-smartx.so.4:_ZN5boost15program_options8validateERNS_3anyERKSt6vectorINSt7__cxx1112basic_stringIcSt11char_traitsIcESaIcEEESaIS9_EEPNS0_17IasUIntVectorTypeEi
libias-audio-smartx.so.4:_ZN5boost15program_options8validateERNS_3anyERKSt6vectorINSt7__cxx1112basic_stringIcSt11char_traitsIcESaIcEEESaIS9_EEPNS0_19IasStringVectorTypeEi
libias-audio-smartx.so.4:_ZN5boost6detail8function15functor_managerINS_9algorithm6detail13token_finderFINS4_10is_any_ofFIcEEEEE6manageERKNS1_15function_bufferERSA_NS1_30functor_manager_operation_typeE
libias-audio-smartx.so.4:_ZN5boost6detail8function21function_obj_invoker2INS_9algorithm6detail13token_finderFINS4_10is_any_ofFIcEEEENS_14iterator_rangeIN9__gnu_cxx17__normal_iteratorIPKcNSt7__cxx1112basic_stringIcSt11char_traitsIcESaIcEEEEEEESK_SK_E6invokeERNS1_15function_bufferESK_SK_
libias-audio-smartx.so.4:_ZN5boost9function1IvRKNS_15program_options17IasUIntVectorTypeEE5dummy7nonnullEv
libias-audio-smartx.so.4:_ZN5boost9function1IvRKNS_15program_options19IasStringVectorTypeEE5dummy7nonnullEv
libias-audio-smartx.so.4:_ZN5boost9function1IvRKNSt7__cxx1112basic_stringIcSt11char_traitsIcESaIcEEEE5dummy7nonnullEv
libias-audio-smartx.so.4:_ZN5boost9function1IvRKjE5dummy7nonnullEv
libias-audio-smartx.so.4:_ZN8IasAudio11IasAudioPin12setDirectionENS0_15IasPinDirectionE
libias-audio-smartx.so.4:_ZN8IasAudio11IasAudioPin13addToPipelineESt10shared_ptrINS_11IasPipelineEERKNSt7__cxx1112basic_stringIcSt11char_traitsIcESaIcEEE
libias-audio-smartx.so.4:_ZN8IasAudio11IasAudioPin18deleteFromPipelineEv
libias-audio-smartx.so.4:_ZN8IasAudio11IasAudioPinC1ESt10shared_ptrINS_17IasAudioPinParamsEE
libias-audio-smartx.so.4:_ZN8IasAudio11IasAudioPinC2ESt10shared_ptrINS_17IasAudioPinParamsEE
libias-audio-smartx.so.4:_ZN8IasAudio11IasAudioPinD0Ev
libias-audio-smartx.so.4:_ZN8IasAudio11IasAudioPinD1Ev
libias-audio-smartx.so.4:_ZN8IasAudio11IasAudioPinD2Ev
libias-audio-smartx.so.4:_ZN8IasAudio11IasPipeline12getAudioPinsEPSt6vectorISt10shared_ptrINS_11IasAudioPinEESaIS4_EE
libias-audio-smartx.so.4:_ZN8IasAudio11IasPipeline14deleteAudioPinESt10shared_ptrINS_11IasAudioPinEE
libias-audio-smartx.so.4:_ZN8IasAudio11IasPipeline14getAudioPinMapESt10shared_ptrINS_11IasAudioPinEERSt6vectorINSt7__cxx1112basic_stringIcSt11char_traitsIcESaIcEEESaISA_EE
libias-audio-smartx.so.4:_ZN8IasAudio11IasPipeline14initAudioChainEv
libias-audio-smartx.so.4:_ZN8IasAudio11IasPipeline14stopPinProbingESt10shared_ptrINS_11IasAudioPinEE
libias-audio-smartx.so.4:_ZN8IasAudio11IasPipeline15startPinProbingESt10shared_ptrINS_11IasAudioPinEENSt7__cxx1112basic_stringIcSt11char_traitsIcESaIcEEEjb
libias-audio-smartx.so.4:_ZN8IasAudio11IasPipeline16addAudioInOutPinESt10shared_ptrINS_19IasProcessingModuleEES1_INS_11IasAudioPinEE
libias-audio-smartx.so.4:_ZN8IasAudio11IasPipeline16addAudioInputPinESt10shared_ptrINS_11IasAudioPinEE
libias-audio-smartx.so.4:_ZN8IasAudio11IasPipeline16addAudioPinToMapESt10shared_ptrINS_11IasAudioPinEES1_INS_19IasProcessingModuleEE
libias-audio-smartx.so.4:_ZN8IasAudio11IasPipeline16initAudioStreamsEv
libias-audio-smartx.so.4:_ZN8IasAudio11IasPipeline16provideInputDataESt10shared_ptrINS_12IasAudioPortEEjjjPj
libias-audio-smartx.so.4:_ZN8IasAudio11IasPipeline17addAudioOutputPinESt10shared_ptrINS_11IasAudioPinEE
libias-audio-smartx.so.4:_ZN8IasAudio11IasPipeline18addAudioPinMappingESt10shared_ptrINS_19IasProcessingModuleEES1_INS_11IasAudioPinEES5_
libias-audio-smartx.so.4:_ZN8IasAudio11IasPipeline18retrieveOutputDataESt10shared_ptrINS0_27IasAudioPinConnectionParamsEEPKNS_12IasAudioAreaENS_24IasAudioCommonDataFormatEjj
libias-audio-smartx.so.4:_ZN8IasAudio11IasPipeline18retrieveOutputDataESt10shared_ptrINS_18IasAudioSinkDeviceEEPKNS_12IasAudioAreaENS_24IasAudioCommonDataFormatEjj
libias-audio-smartx.so.4:_ZN8IasAudio11IasPipeline19addProcessingModuleESt10shared_ptrINS_19IasProcessingModuleEE
libias-audio-smartx.so.4:_ZN8IasAudio11IasPipeline19deleteAudioInOutPinESt10shared_ptrINS_19IasProcessingModuleEES1_INS_11IasAudioPinEE
libias-audio-smartx.so.4:_ZN8IasAudio11IasPipeline20getPinConnectionInfoESt10shared_ptrINS_11IasAudioPinEERSt6vectorINSt7__cxx1112basic_stringIcSt11char_traitsIcESaIcEEESaISA_EE
libias-audio-smartx.so.4:_ZN8IasAudio11IasPipeline20getPipelineInputPinsEv
libias-audio-smartx.so.4:_ZN8IasAudio11IasPipeline20getProcessingModulesEPSt6vectorISt10shared_ptrINS_19IasProcessingModuleEESaIS4_EE
libias-audio-smartx.so.4:_ZN8IasAudio11IasPipeline21deleteAudioPinMappingESt10shared_ptrINS_19IasProcessingModuleEES1_INS_11IasAudioPinEES5_
libias-audio-smartx.so.4:_ZN8IasAudio11IasPipeline21getPipelineOutputPinsEv
libias-audio-smartx.so.4:_ZN8IasAudio11IasPipeline22deleteProcessingModuleESt10shared_ptrINS_19IasProcessingModuleEE
libias-audio-smartx.so.4:_ZN8IasAudio11IasPipeline24eraseAudioChannelBuffersESt10shared_ptrINS0_27IasAudioPinConnectionParamsEE
libias-audio-smartx.so.4:_ZN8IasAudio11IasPipeline24eraseAudioChannelBuffersESt10shared_ptrINS_11IasAudioPinEE
libias-audio-smartx.so.4:_ZN8IasAudio11IasPipeline25createAudioChannelBuffersESt10shared_ptrINS0_27IasAudioPinConnectionParamsEEjj
libias-audio-smartx.so.4:_ZN8IasAudio11IasPipeline26identifyProcessingSequenceEv
libias-audio-smartx.so.4:_ZN8IasAudio11IasPipeline28getPipelinePinConnectionLinkESt10shared_ptrINS_11IasAudioPinEERS1_INS_12IasAudioPortEE
libias-audio-smartx.so.4:_ZN8IasAudio11IasPipeline4initEv
libias-audio-smartx.so.4:_ZN8IasAudio11IasPipeline4linkESt10shared_ptrINS_11IasAudioPinEES3_NS_19IasAudioPinLinkTypeE
libias-audio-smartx.so.4:_ZN8IasAudio11IasPipeline4linkESt10shared_ptrINS_12IasAudioPortEES1_INS_11IasAudioPinEE
libias-audio-smartx.so.4:_ZN8IasAudio11IasPipeline6unlinkESt10shared_ptrINS_11IasAudioPinEES3_
libias-audio-smartx.so.4:_ZN8IasAudio11IasPipeline6unlinkESt10shared_ptrINS_12IasAudioPortEES1_INS_11IasAudioPinEE
libias-audio-smartx.so.4:_ZN8IasAudio11IasPipeline7processEv
libias-audio-smartx.so.4:_ZN8IasAudio11IasPipelineC1ESt10shared_ptrINS_17IasPipelineParamsEES1_INS_15IasPluginEngineEES1_INS_16IasConfigurationEE
libias-audio-smartx.so.4:_ZN8IasAudio11IasPipelineC2ESt10shared_ptrINS_17IasPipelineParamsEES1_INS_15IasPluginEngineEES1_INS_16IasConfigurationEE
libias-audio-smartx.so.4:_ZN8IasAudio11IasPipelineD0Ev
libias-audio-smartx.so.4:_ZN8IasAudio11IasPipelineD1Ev
libias-audio-smartx.so.4:_ZN8IasAudio11IasPipelineD2Ev
libias-audio-smartx.so.4:_ZN8IasAudio12IasAudioPort10clearOwnerEv
libias-audio-smartx.so.4:_ZN8IasAudio12IasAudioPort13setRingBufferEPNS_18IasAudioRingBufferE
libias-audio-smartx.so.4:_ZN8IasAudio12IasAudioPort15clearRingBufferEv
libias-audio-smartx.so.4:_ZN8IasAudio12IasAudioPort15storeConnectionESt10shared_ptrINS_15IasSwitchMatrixEE
libias-audio-smartx.so.4:_ZN8IasAudio12IasAudioPort16forgetConnectionESt10shared_ptrINS_15IasSwitchMatrixEE
libias-audio-smartx.so.4:_ZN8IasAudio12IasAudioPort8getOwnerEPSt10shared_ptrINS_17IasAudioPortOwnerEE
libias-audio-smartx.so.4:_ZN8IasAudio12IasAudioPort8setOwnerESt10shared_ptrINS_17IasAudioPortOwnerEE
libias-audio-smartx.so.4:_ZN8IasAudio12IasAudioPortC1ESt10shared_ptrINS_18IasAudioPortParamsEE
libias-audio-smartx.so.4:_ZN8IasAudio12IasAudioPortC2ESt10shared_ptrINS_18IasAudioPortParamsEE
libias-audio-smartx.so.4:_ZN8IasAudio12IasAudioPortD0Ev
libias-audio-smartx.so.4:_ZN8IasAudio12IasAudioPortD1Ev
libias-audio-smartx.so.4:_ZN8IasAudio12IasAudioPortD2Ev
libias-audio-smartx.so.4:_ZN8IasAudio12IasDebugImpl11startInjectERKNSt7__cxx1112basic_stringIcSt11char_traitsIcESaIcEEES8_j
libias-audio-smartx.so.4:_ZN8IasAudio12IasDebugImpl11startRecordERKNSt7__cxx1112basic_stringIcSt11char_traitsIcESaIcEEES8_j
libias-audio-smartx.so.4:_ZN8IasAudio12IasDebugImpl11stopProbingERKNSt7__cxx1112basic_stringIcSt11char_traitsIcESaIcEEE
libias-audio-smartx.so.4:_ZN8IasAudio12IasDebugImpl12startProbingERKNSt7__cxx1112basic_stringIcSt11char_traitsIcESaIcEEES8_jb
libias-audio-smartx.so.4:_ZN8IasAudio12IasDebugImpl16getProbeLocationESt10shared_ptrINS_18IasAudioPortParamsEE
libias-audio-smartx.so.4:_ZN8IasAudio12IasDebugImpl22stopRoutingZoneProbingESt10shared_ptrINS_17IasAudioPortOwnerEE
libias-audio-smartx.so.4:_ZN8IasAudio12IasDebugImpl23startRoutingZoneProbingESt10shared_ptrINS_18IasAudioPortParamsEES1_INS_17IasAudioPortOwnerEERKNSt7__cxx1112basic_stringIcSt11char_traitsIcESaIcEEEbj
libias-audio-smartx.so.4:_ZN8IasAudio12IasDebugImpl23stopSwitchMatrixProbingESt10shared_ptrINS_12IasAudioPortEES1_INS_17IasAudioPortOwnerEE
libias-audio-smartx.so.4:_ZN8IasAudio12IasDebugImpl24startSwitchMatrixProbingESt10shared_ptrINS_12IasAudioPortEES1_INS_17IasAudioPortOwnerEERKNSt7__cxx1112basic_stringIcSt11char_traitsIcESaIcEEEbjj
libias-audio-smartx.so.4:_ZN8IasAudio12IasDebugImpl9translateENS_11IasPipeline9IasResultE
libias-audio-smartx.so.4:_ZN8IasAudio12IasDebugImpl9translateENS_16IasConfiguration9IasResultE
libias-audio-smartx.so.4:_ZN8IasAudio12IasDebugImplC1ESt10shared_ptrINS_16IasConfigurationEE
libias-audio-smartx.so.4:_ZN8IasAudio12IasDebugImplC2ESt10shared_ptrINS_16IasConfigurationEE
libias-audio-smartx.so.4:_ZN8IasAudio12IasDebugImplD0Ev
libias-audio-smartx.so.4:_ZN8IasAudio12IasDebugImplD1Ev
libias-audio-smartx.so.4:_ZN8IasAudio12IasDebugImplD2Ev
libias-audio-smartx.so.4:_ZN8IasAudio12IasSetupImpl11addPipelineESt10shared_ptrINS_14IasRoutingZoneEES1_INS_11IasPipelineEE
libias-audio-smartx.so.4:_ZN8IasAudio12IasSetupImpl11getPipelineERKNSt7__cxx1112basic_stringIcSt11char_traitsIcESaIcEEE
libias-audio-smartx.so.4:_ZN8IasAudio12IasSetupImpl13getPropertiesESt10shared_ptrINS_19IasProcessingModuleEE
libias-audio-smartx.so.4:_ZN8IasAudio12IasSetupImpl13setPropertiesESt10shared_ptrINS_19IasProcessingModuleEERKNS_13IasPropertiesE
libias-audio-smartx.so.4:_ZN8IasAudio12IasSetupImpl14addDerivedZoneESt10shared_ptrINS_14IasRoutingZoneEES3_
libias-audio-smartx.so.4:_ZN8IasAudio12IasSetupImpl14addSourceGroupERKNSt7__cxx1112basic_stringIcSt11char_traitsIcESaIcEEEi
libias-audio-smartx.so.4:_ZN8IasAudio12IasSetupImpl14createAudioPinERKNS_17IasAudioPinParamsEPSt10shared_ptrINS_11IasAudioPinEE
libias-audio-smartx.so.4:_ZN8IasAudio12IasSetupImpl14createPipelineERKNS_17IasPipelineParamsEPSt10shared_ptrINS_11IasPipelineEE
libias-audio-smartx.so.4:_ZN8IasAudio12IasSetupImpl14deletePipelineESt10shared_ptrINS_14IasRoutingZoneEE
libias-audio-smartx.so.4:_ZN8IasAudio12IasSetupImpl14getRoutingZoneERKNSt7__cxx1112basic_stringIcSt11char_traitsIcESaIcEEE
libias-audio-smartx.so.4:_ZN8IasAudio12IasSetupImpl15createAudioPortERKNS_18IasAudioPortParamsEPSt10shared_ptrINS_12IasAudioPortEE
libias-audio-smartx.so.4:_ZN8IasAudio12IasSetupImpl15destroyAudioPinEPSt10shared_ptrINS_11IasAudioPinEE
libias-audio-smartx.so.4:_ZN8IasAudio12IasSetupImpl15destroyPipelineEPSt10shared_ptrINS_11IasPipelineEE
libias-audio-smartx.so.4:_ZN8IasAudio12IasSetupImpl15getSourceGroupsB5cxx11Ev
libias-audio-smartx.so.4:_ZN8IasAudio12IasSetupImpl15stopRoutingZoneESt10shared_ptrINS_14IasRoutingZoneEE
libias-audio-smartx.so.4:_ZN8IasAudio12IasSetupImpl16addAudioInOutPinESt10shared_ptrINS_19IasProcessingModuleEES1_INS_11IasAudioPinEE
libias-audio-smartx.so.4:_ZN8IasAudio12IasSetupImpl16addAudioInputPinESt10shared_ptrINS_11IasPipelineEES1_INS_11IasAudioPinEE
libias-audio-smartx.so.4:_ZN8IasAudio12IasSetupImpl16destroyAudioPortESt10shared_ptrINS_12IasAudioPortEE
libias-audio-smartx.so.4:_ZN8IasAudio12IasSetupImpl16startRoutingZoneESt10shared_ptrINS_14IasRoutingZoneEE
libias-audio-smartx.so.4:_ZN8IasAudio12IasSetupImpl16verifyBufferSizeERKNS_20IasAudioDeviceParamsE
libias-audio-smartx.so.4:_ZN8IasAudio12IasSetupImpl17addAudioInputPortESt10shared_ptrINS_14IasRoutingZoneEES1_INS_12IasAudioPortEE
libias-audio-smartx.so.4:_ZN8IasAudio12IasSetupImpl17addAudioInputPortESt10shared_ptrINS_18IasAudioSinkDeviceEES1_INS_12IasAudioPortEE
libias-audio-smartx.so.4:_ZN8IasAudio12IasSetupImpl17addAudioOutputPinESt10shared_ptrINS_11IasPipelineEES1_INS_11IasAudioPinEE
libias-audio-smartx.so.4:_ZN8IasAudio12IasSetupImpl17createRoutingZoneERKNS_20IasRoutingZoneParamsEPSt10shared_ptrINS_14IasRoutingZoneEE
libias-audio-smartx.so.4:_ZN8IasAudio12IasSetupImpl17deleteDerivedZoneESt10shared_ptrINS_14IasRoutingZoneEES3_
libias-audio-smartx.so.4:_ZN8IasAudio12IasSetupImpl18addAudioOutputPortESt10shared_ptrINS_20IasAudioSourceDeviceEES1_INS_12IasAudioPortEE
libias-audio-smartx.so.4:_ZN8IasAudio12IasSetupImpl18addAudioPinMappingESt10shared_ptrINS_19IasProcessingModuleEES1_INS_11IasAudioPinEES5_
libias-audio-smartx.so.4:_ZN8IasAudio12IasSetupImpl18destroyRoutingZoneESt10shared_ptrINS_14IasRoutingZoneEE
libias-audio-smartx.so.4:_ZN8IasAudio12IasSetupImpl18getAudioSinkDeviceERKNSt7__cxx1112basic_stringIcSt11char_traitsIcESaIcEEE
libias-audio-smartx.so.4:_ZN8IasAudio12IasSetupImpl19addProcessingModuleESt10shared_ptrINS_11IasPipelineEES1_INS_19IasProcessingModuleEE
libias-audio-smartx.so.4:_ZN8IasAudio12IasSetupImpl19deleteAudioInOutPinESt10shared_ptrINS_19IasProcessingModuleEES1_INS_11IasAudioPinEE
libias-audio-smartx.so.4:_ZN8IasAudio12IasSetupImpl19deleteAudioInputPinESt10shared_ptrINS_11IasPipelineEES1_INS_11IasAudioPinEE
libias-audio-smartx.so.4:_ZN8IasAudio12IasSetupImpl20deleteAudioInputPortESt10shared_ptrINS_14IasRoutingZoneEES1_INS_12IasAudioPortEE
libias-audio-smartx.so.4:_ZN8IasAudio12IasSetupImpl20deleteAudioInputPortESt10shared_ptrINS_18IasAudioSinkDeviceEES1_INS_12IasAudioPortEE
libias-audio-smartx.so.4:_ZN8IasAudio12IasSetupImpl20deleteAudioOutputPinESt10shared_ptrINS_11IasPipelineEES1_INS_11IasAudioPinEE
libias-audio-smartx.so.4:_ZN8IasAudio12IasSetupImpl20getAudioSourceDeviceERKNSt7__cxx1112basic_stringIcSt11char_traitsIcESaIcEEE
libias-audio-smartx.so.4:_ZN8IasAudio12IasSetupImpl21createAudioSinkDeviceERKNS_20IasAudioDeviceParamsEPSt10shared_ptrINS_18IasAudioSinkDeviceEE
libias-audio-smartx.so.4:_ZN8IasAudio12IasSetupImpl21deleteAudioOutputPortESt10shared_ptrINS_20IasAudioSourceDeviceEES1_INS_12IasAudioPortEE
libias-audio-smartx.so.4:_ZN8IasAudio12IasSetupImpl21deleteAudioPinMappingESt10shared_ptrINS_19IasProcessingModuleEES1_INS_11IasAudioPinEES5_
libias-audio-smartx.so.4:_ZN8IasAudio12IasSetupImpl21stopAudioSourceDeviceESt10shared_ptrINS_20IasAudioSourceDeviceEE
libias-audio-smartx.so.4:_ZN8IasAudio12IasSetupImpl22createProcessingModuleERKNS_25IasProcessingModuleParamsEPSt10shared_ptrINS_19IasProcessingModuleEE
libias-audio-smartx.so.4:_ZN8IasAudio12IasSetupImpl22deleteProcessingModuleESt10shared_ptrINS_11IasPipelineEES1_INS_19IasProcessingModuleEE
libias-audio-smartx.so.4:_ZN8IasAudio12IasSetupImpl22destroyAudioSinkDeviceESt10shared_ptrINS_18IasAudioSinkDeviceEE
libias-audio-smartx.so.4:_ZN8IasAudio12IasSetupImpl22initPipelineAudioChainESt10shared_ptrINS_11IasPipelineEE
libias-audio-smartx.so.4:_ZN8IasAudio12IasSetupImpl22startAudioSourceDeviceESt10shared_ptrINS_20IasAudioSourceDeviceEE
libias-audio-smartx.so.4:_ZN8IasAudio12IasSetupImpl23createAudioSourceDeviceERKNS_20IasAudioDeviceParamsEPSt10shared_ptrINS_20IasAudioSourceDeviceEE
libias-audio-smartx.so.4:_ZN8IasAudio12IasSetupImpl23destroyProcessingModuleEPSt10shared_ptrINS_19IasProcessingModuleEE
libias-audio-smartx.so.4:_ZN8IasAudio12IasSetupImpl24destroyAudioSourceDeviceESt10shared_ptrINS_20IasAudioSourceDeviceEE
libias-audio-smartx.so.4:_ZN8IasAudio12IasSetupImpl4linkESt10shared_ptrINS_11IasAudioPinEES3_NS_19IasAudioPinLinkTypeE
libias-audio-smartx.so.4:_ZN8IasAudio12IasSetupImpl4linkESt10shared_ptrINS_12IasAudioPortEES1_INS_11IasAudioPinEE
libias-audio-smartx.so.4:_ZN8IasAudio12IasSetupImpl4linkESt10shared_ptrINS_12IasAudioPortEES3_
libias-audio-smartx.so.4:_ZN8IasAudio12IasSetupImpl4linkESt10shared_ptrINS_14IasRoutingZoneEES1_INS_18IasAudioSinkDeviceEE
libias-audio-smartx.so.4:_ZN8IasAudio12IasSetupImpl6unlinkESt10shared_ptrINS_11IasAudioPinEES3_
libias-audio-smartx.so.4:_ZN8IasAudio12IasSetupImpl6unlinkESt10shared_ptrINS_12IasAudioPortEES1_INS_11IasAudioPinEE
libias-audio-smartx.so.4:_ZN8IasAudio12IasSetupImpl6unlinkESt10shared_ptrINS_12IasAudioPortEES3_
libias-audio-smartx.so.4:_ZN8IasAudio12IasSetupImpl6unlinkESt10shared_ptrINS_14IasRoutingZoneEES1_INS_18IasAudioSinkDeviceEE
libias-audio-smartx.so.4:_ZN8IasAudio12IasSetupImplC1ESt10shared_ptrINS_16IasConfigurationEES1_INS_16IasCmdDispatcherEEPNS_11IasIRoutingE
libias-audio-smartx.so.4:_ZN8IasAudio12IasSetupImplC2ESt10shared_ptrINS_16IasConfigurationEES1_INS_16IasCmdDispatcherEEPNS_11IasIRoutingE
libias-audio-smartx.so.4:_ZN8IasAudio12IasSetupImplD0Ev
libias-audio-smartx.so.4:_ZN8IasAudio12IasSetupImplD1Ev
libias-audio-smartx.so.4:_ZN8IasAudio12IasSetupImplD2Ev
libias-audio-smartx.so.4:_ZN8IasAudio13IasAudioChain17addAudioComponentEPNS_19IasGenericAudioCompE
libias-audio-smartx.so.4:_ZN8IasAudio13IasAudioChain22createInputAudioStreamERKNSt7__cxx1112basic_stringIcSt11char_traitsIcESaIcEEEiib
libias-audio-smartx.so.4:_ZN8IasAudio13IasAudioChain23createOutputAudioStreamERKNSt7__cxx1112basic_stringIcSt11char_traitsIcESaIcEEEiib
libias-audio-smartx.so.4:_ZN8IasAudio13IasAudioChain34createIntermediateInputAudioStreamERKNSt7__cxx1112basic_stringIcSt11char_traitsIcESaIcEEEiib
libias-audio-smartx.so.4:_ZN8IasAudio13IasAudioChain35createIntermediateOutputAudioStreamERKNSt7__cxx1112basic_stringIcSt11char_traitsIcESaIcEEEiib
libias-audio-smartx.so.4:_ZN8IasAudio13IasAudioChain4initERKNS0_13IasInitParamsE
libias-audio-smartx.so.4:_ZN8IasAudio13IasAudioChainC1Ev
libias-audio-smartx.so.4:_ZN8IasAudio13IasAudioChainC2Ev
libias-audio-smartx.so.4:_ZN8IasAudio13IasAudioChainD0Ev
libias-audio-smartx.so.4:_ZN8IasAudio13IasAudioChainD1Ev
libias-audio-smartx.so.4:_ZN8IasAudio13IasAudioChainD2Ev
libias-audio-smartx.so.4:_ZN8IasAudio13IasBufferTask10unlockJobsEv
libias-audio-smartx.so.4:_ZN8IasAudio13IasBufferTask11stopProbingEv
libias-audio-smartx.so.4:_ZN8IasAudio13IasBufferTask12startProbingERKNSt7__cxx1112basic_stringIcSt11char_traitsIcESaIcEEEjbjjjNS_24IasAudioCommonDataFormatE
libias-audio-smartx.so.4:_ZN8IasAudio13IasBufferTask13deleteAllJobsESt10shared_ptrINS_12IasAudioPortEE
libias-audio-smartx.so.4:_ZN8IasAudio13IasBufferTask15checkConnectionESt10shared_ptrINS_12IasAudioPortEES3_
libias-audio-smartx.so.4:_ZN8IasAudio13IasBufferTask16triggerDeleteJobESt10shared_ptrINS_12IasAudioPortEES3_NS0_12IasJobActionE
libias-audio-smartx.so.4:_ZN8IasAudio13IasBufferTask6addJobESt10shared_ptrINS_12IasAudioPortEES3_
libias-audio-smartx.so.4:_ZN8IasAudio13IasBufferTask6doJobsEv
libias-audio-smartx.so.4:_ZN8IasAudio13IasBufferTask7doDummyEv
libias-audio-smartx.so.4:_ZN8IasAudio13IasBufferTask7findJobESt10shared_ptrINS_12IasAudioPortEE
libias-audio-smartx.so.4:_ZN8IasAudio13IasBufferTask7lockJobESt10shared_ptrINS_12IasAudioPortEE
libias-audio-smartx.so.4:_ZN8IasAudio13IasBufferTask8lockJobsEv
libias-audio-smartx.so.4:_ZN8IasAudio13IasBufferTask9deleteJobESt23_Rb_tree_const_iteratorISt10shared_ptrINS_18IasSwitchMatrixJobEEENS0_12IasJobActionE
libias-audio-smartx.so.4:_ZN8IasAudio13IasBufferTaskC1ESt10shared_ptrINS_12IasAudioPortEEjjjb
libias-audio-smartx.so.4:_ZN8IasAudio13IasBufferTaskC2ESt10shared_ptrINS_12IasAudioPortEEjjjb
libias-audio-smartx.so.4:_ZN8IasAudio13IasBufferTaskD0Ev
libias-audio-smartx.so.4:_ZN8IasAudio13IasBufferTaskD1Ev
libias-audio-smartx.so.4:_ZN8IasAudio13IasBufferTaskD2Ev
libias-audio-smartx.so.4:_ZN8IasAudio13IasConfigFile11addLogLevelEN5boost15program_options14variable_valueE15DltLogLevelType
libias-audio-smartx.so.4:_ZN8IasAudio13IasConfigFile11getInstanceEv
libias-audio-smartx.so.4:_ZN8IasAudio13IasConfigFile14addCpuAffinityEN5boost15program_options14variable_valueE
libias-audio-smartx.so.4:_ZN8IasAudio13IasConfigFile14setSchedPolicyEN5boost15program_options14variable_valueE
libias-audio-smartx.so.4:_ZN8IasAudio13IasConfigFile15setShmGroupNameEN5boost15program_options14variable_valueE
libias-audio-smartx.so.4:_ZN8IasAudio13IasConfigFile16setSchedPriorityEN5boost15program_options14variable_valueE
libias-audio-smartx.so.4:_ZN8IasAudio13IasConfigFile20addRunnerThreadStateERKNSt7__cxx1112basic_stringIcSt11char_traitsIcESaIcEEES8_
libias-audio-smartx.so.4:_ZN8IasAudio13IasConfigFile23addAlsaHandlerDiagParamERKNSt7__cxx1112basic_stringIcSt11char_traitsIcESaIcEEES8_
libias-audio-smartx.so.4:_ZN8IasAudio13IasConfigFile35configureThreadSchedulingParametersEP10DltContextNS_31IasRunnerThreadSchedulePriorityE
libias-audio-smartx.so.4:_ZN8IasAudio13IasConfigFile4loadEv
libias-audio-smartx.so.4:_ZN8IasAudio13IasConfigFileC1Ev
libias-audio-smartx.so.4:_ZN8IasAudio13IasConfigFileC2Ev
libias-audio-smartx.so.4:_ZN8IasAudio13IasConfigFileD1Ev
libias-audio-smartx.so.4:_ZN8IasAudio13IasConfigFileD2Ev
libias-audio-smartx.so.4:_ZN8IasAudio13IasDiagnostic10stopStreamERKNSt7__cxx1112basic_stringIcSt11char_traitsIcESaIcEEE
libias-audio-smartx.so.4:_ZN8IasAudio13IasDiagnostic11getInstanceEv
libias-audio-smartx.so.4:_ZN8IasAudio13IasDiagnostic11startStreamERKNSt7__cxx1112basic_stringIcSt11char_traitsIcESaIcEEE
libias-audio-smartx.so.4:_ZN8IasAudio13IasDiagnostic14registerStreamERKNS_19IasDiagnosticStream9IasParamsEPSt10shared_ptrIS1_E
libias-audio-smartx.so.4:_ZN8IasAudio13IasDiagnostic16isThreadFinishedEv
libias-audio-smartx.so.4:_ZN8IasAudio13IasDiagnostic19setConfigParametersEjj
libias-audio-smartx.so.4:_ZN8IasAudio13IasDiagnosticC1Ev
libias-audio-smartx.so.4:_ZN8IasAudio13IasDiagnosticC2Ev
libias-audio-smartx.so.4:_ZN8IasAudio13IasDiagnosticD0Ev
libias-audio-smartx.so.4:_ZN8IasAudio13IasDiagnosticD1Ev
libias-audio-smartx.so.4:_ZN8IasAudio13IasDiagnosticD2Ev
libias-audio-smartx.so.4:_ZN8IasAudio13IasModuleInfoC1ERKNSt7__cxx1112basic_stringIcSt11char_traitsIcESaIcEEE
libias-audio-smartx.so.4:_ZN8IasAudio13IasModuleInfoC2ERKNSt7__cxx1112basic_stringIcSt11char_traitsIcESaIcEEE
libias-audio-smartx.so.4:_ZN8IasAudio13IasProperties3setINSt7__cxx1112basic_stringIcSt11char_traitsIcESaIcEEEEEvRKS7_RKT_
libias-audio-smartx.so.4:_ZN8IasAudio13IasProperties3setISt6vectorINSt7__cxx1112basic_stringIcSt11char_traitsIcESaIcEEESaIS8_EEEEvRKS8_RKT_
libias-audio-smartx.so.4:_ZN8IasAudio13IasProperties3setISt6vectorIdSaIdEEEEvRKNSt7__cxx1112basic_stringIcSt11char_traitsIcESaIcEEERKT_
libias-audio-smartx.so.4:_ZN8IasAudio13IasProperties3setISt6vectorIfSaIfEEEEvRKNSt7__cxx1112basic_stringIcSt11char_traitsIcESaIcEEERKT_
libias-audio-smartx.so.4:_ZN8IasAudio13IasProperties3setISt6vectorIiSaIiEEEEvRKNSt7__cxx1112basic_stringIcSt11char_traitsIcESaIcEEERKT_
libias-audio-smartx.so.4:_ZN8IasAudio13IasProperties3setISt6vectorIlSaIlEEEEvRKNSt7__cxx1112basic_stringIcSt11char_traitsIcESaIcEEERKT_
libias-audio-smartx.so.4:_ZN8IasAudio13IasProperties3setIdEEvRKNSt7__cxx1112basic_stringIcSt11char_traitsIcESaIcEEERKT_
libias-audio-smartx.so.4:_ZN8IasAudio13IasProperties3setIfEEvRKNSt7__cxx1112basic_stringIcSt11char_traitsIcESaIcEEERKT_
libias-audio-smartx.so.4:_ZN8IasAudio13IasProperties3setIiEEvRKNSt7__cxx1112basic_stringIcSt11char_traitsIcESaIcEEERKT_
libias-audio-smartx.so.4:_ZN8IasAudio13IasProperties3setIlEEvRKNSt7__cxx1112basic_stringIcSt11char_traitsIcESaIcEEERKT_
libias-audio-smartx.so.4:_ZN8IasAudio13IasProperties5clearERKNSt7__cxx1112basic_stringIcSt11char_traitsIcESaIcEEE
libias-audio-smartx.so.4:_ZN8IasAudio13IasProperties8clearAllEv
libias-audio-smartx.so.4:_ZN8IasAudio13IasPropertiesC1Ev
libias-audio-smartx.so.4:_ZN8IasAudio13IasPropertiesC2Ev
libias-audio-smartx.so.4:_ZN8IasAudio13IasPropertiesD0Ev
libias-audio-smartx.so.4:_ZN8IasAudio13IasPropertiesD1Ev
libias-audio-smartx.so.4:_ZN8IasAudio13IasPropertiesD2Ev
libias-audio-smartx.so.4:_ZN8IasAudio13IasSetupEvent6acceptERNS_15IasEventHandlerE
libias-audio-smartx.so.4:_ZN8IasAudio13IasSetupEventC1Ev
libias-audio-smartx.so.4:_ZN8IasAudio13IasSetupEventC2Ev
libias-audio-smartx.so.4:_ZN8IasAudio13IasSetupEventD0Ev
libias-audio-smartx.so.4:_ZN8IasAudio13IasSetupEventD1Ev
libias-audio-smartx.so.4:_ZN8IasAudio13IasSetupEventD2Ev
libias-audio-smartx.so.4:_ZN8IasAudio13IasSmartXPriv10processingEv
libias-audio-smartx.so.4:_ZN8IasAudio13IasSmartXPriv12getNextEventEPSt10shared_ptrINS_8IasEventEE
libias-audio-smartx.so.4:_ZN8IasAudio13IasSmartXPriv4initEv
libias-audio-smartx.so.4:_ZN8IasAudio13IasSmartXPriv4stopEv
libias-audio-smartx.so.4:_ZN8IasAudio13IasSmartXPriv5debugEv
libias-audio-smartx.so.4:_ZN8IasAudio13IasSmartXPriv5setupEv
libias-audio-smartx.so.4:_ZN8IasAudio13IasSmartXPriv5startEv
libias-audio-smartx.so.4:_ZN8IasAudio13IasSmartXPriv7routingEv
libias-audio-smartx.so.4:_ZN8IasAudio13IasSmartXPrivC1Ev
libias-audio-smartx.so.4:_ZN8IasAudio13IasSmartXPrivC2Ev
libias-audio-smartx.so.4:_ZN8IasAudio13IasSmartXPrivD1Ev
libias-audio-smartx.so.4:_ZN8IasAudio13IasSmartXPrivD2Ev
libias-audio-smartx.so.4:_ZN8IasAudio14IasAlsaHandler12set_hwparamsEP8_snd_pcmNS_24IasAudioCommonDataFormatEjjjjPiS4_
libias-audio-smartx.so.4:_ZN8IasAudio14IasAlsaHandler12set_swparamsEP8_snd_pcmii
libias-audio-smartx.so.4:_ZN8IasAudio14IasAlsaHandler15setNonBlockModeEb
libias-audio-smartx.so.4:_ZN8IasAudio14IasAlsaHandler4initENS_13IasDeviceTypeE
libias-audio-smartx.so.4:_ZN8IasAudio14IasAlsaHandler4stopEv
libias-audio-smartx.so.4:_ZN8IasAudio14IasAlsaHandler5resetEv
libias-audio-smartx.so.4:_ZN8IasAudio14IasAlsaHandler5startEv
libias-audio-smartx.so.4:_ZN8IasAudio14IasAlsaHandlerC1ESt10shared_ptrINS_20IasAudioDeviceParamsEE
libias-audio-smartx.so.4:_ZN8IasAudio14IasAlsaHandlerC2ESt10shared_ptrINS_20IasAudioDeviceParamsEE
libias-audio-smartx.so.4:_ZN8IasAudio14IasAlsaHandlerD0Ev
libias-audio-smartx.so.4:_ZN8IasAudio14IasAlsaHandlerD1Ev
libias-audio-smartx.so.4:_ZN8IasAudio14IasAlsaHandlerD2Ev
libias-audio-smartx.so.4:_ZN8IasAudio14IasAudioBuffer4initEv
libias-audio-smartx.so.4:_ZN8IasAudio14IasAudioBufferC1Ej
libias-audio-smartx.so.4:_ZN8IasAudio14IasAudioBufferC2Ej
libias-audio-smartx.so.4:_ZN8IasAudio14IasAudioBufferD0Ev
libias-audio-smartx.so.4:_ZN8IasAudio14IasAudioBufferD1Ev
libias-audio-smartx.so.4:_ZN8IasAudio14IasAudioBufferD2Ev
libias-audio-smartx.so.4:_ZN8IasAudio14IasAudioDevice12addAudioPortESt10shared_ptrINS_12IasAudioPortEE
libias-audio-smartx.so.4:_ZN8IasAudio14IasAudioDevice13getRingBufferEv
libias-audio-smartx.so.4:_ZN8IasAudio14IasAudioDevice15deleteAudioPortESt10shared_ptrINS_12IasAudioPortEE
libias-audio-smartx.so.4:_ZN8IasAudio14IasAudioDevice16enableEventQueueEb
libias-audio-smartx.so.4:_ZN8IasAudio14IasAudioDevice16getNextEventTypeEv
libias-audio-smartx.so.4:_ZN8IasAudio14IasAudioDevice17getConcreteDeviceEPSt10shared_ptrINS_14IasAlsaHandlerEE
libias-audio-smartx.so.4:_ZN8IasAudio14IasAudioDevice17getConcreteDeviceEPSt10shared_ptrINS_15IasSmartXClientEE
libias-audio-smartx.so.4:_ZN8IasAudio14IasAudioDevice17setConcreteDeviceESt10shared_ptrINS_14IasAlsaHandlerEE
libias-audio-smartx.so.4:_ZN8IasAudio14IasAudioDevice17setConcreteDeviceESt10shared_ptrINS_15IasSmartXClientEE
libias-audio-smartx.so.4:_ZN8IasAudio14IasAudioDeviceC1ESt10shared_ptrINS_20IasAudioDeviceParamsEE
libias-audio-smartx.so.4:_ZN8IasAudio14IasAudioDeviceC2ESt10shared_ptrINS_20IasAudioDeviceParamsEE
libias-audio-smartx.so.4:_ZN8IasAudio14IasAudioDeviceD0Ev
libias-audio-smartx.so.4:_ZN8IasAudio14IasAudioDeviceD1Ev
libias-audio-smartx.so.4:_ZN8IasAudio14IasAudioDeviceD2Ev
libias-audio-smartx.so.4:_ZN8IasAudio14IasAudioStream15asBundledStreamEv
libias-audio-smartx.so.4:_ZN8IasAudio14IasAudioStream16getBundledStreamEv
libias-audio-smartx.so.4:_ZN8IasAudio14IasAudioStream16updateCurrentSidEv
libias-audio-smartx.so.4:_ZN8IasAudio14IasAudioStream18setConnectedDeviceEPNS_14IasAudioDeviceE
libias-audio-smartx.so.4:_ZN8IasAudio14IasAudioStream19asInterleavedStreamEv
libias-audio-smartx.so.4:_ZN8IasAudio14IasAudioStream20getAudioDataPointersEPPSt6vectorIPfSaIS2_EEPj
libias-audio-smartx.so.4:_ZN8IasAudio14IasAudioStream20getAudioDataPointersERSt6vectorIPfSaIS2_EE
libias-audio-smartx.so.4:_ZN8IasAudio14IasAudioStream20getInterleavedStreamEv
libias-audio-smartx.so.4:_ZN8IasAudio14IasAudioStream21removeConnectedDeviceEv
libias-audio-smartx.so.4:_ZN8IasAudio14IasAudioStream22asNonInterleavedStreamEv
libias-audio-smartx.so.4:_ZN8IasAudio14IasAudioStream23getNonInterleavedStreamEv
libias-audio-smartx.so.4:_ZN8IasAudio14IasAudioStream25copyToOutputAudioChannelsEv
libias-audio-smartx.so.4:_ZN8IasAudio14IasAudioStream26copyFromInputAudioChannelsEv
libias-audio-smartx.so.4:_ZN8IasAudio14IasAudioStream4initESt10shared_ptrINS_24IasAudioChainEnvironmentEE
libias-audio-smartx.so.4:_ZN8IasAudio14IasAudioStream6setSidEj
libias-audio-smartx.so.4:_ZN8IasAudio14IasAudioStreamC1ERKNSt7__cxx1112basic_stringIcSt11char_traitsIcESaIcEEEijNS_18IasBaseAudioStream19IasAudioStreamTypesEb
libias-audio-smartx.so.4:_ZN8IasAudio14IasAudioStreamC2ERKNSt7__cxx1112basic_stringIcSt11char_traitsIcESaIcEEEijNS_18IasBaseAudioStream19IasAudioStreamTypesEb
libias-audio-smartx.so.4:_ZN8IasAudio14IasAudioStreamD0Ev
libias-audio-smartx.so.4:_ZN8IasAudio14IasAudioStreamD1Ev
libias-audio-smartx.so.4:_ZN8IasAudio14IasAudioStreamD2Ev
libias-audio-smartx.so.4:_ZN8IasAudio14IasRoutingImpl10disconnectEii
libias-audio-smartx.so.4:_ZN8IasAudio14IasRoutingImpl14disconnectSafeEii
libias-audio-smartx.so.4:_ZN8IasAudio14IasRoutingImpl7connectEii
libias-audio-smartx.so.4:_ZN8IasAudio14IasRoutingImplC1ESt10shared_ptrINS_16IasConfigurationEE
libias-audio-smartx.so.4:_ZN8IasAudio14IasRoutingImplC2ESt10shared_ptrINS_16IasConfigurationEE
libias-audio-smartx.so.4:_ZN8IasAudio14IasRoutingImplD0Ev
libias-audio-smartx.so.4:_ZN8IasAudio14IasRoutingImplD1Ev
libias-audio-smartx.so.4:_ZN8IasAudio14IasRoutingImplD2Ev
libias-audio-smartx.so.4:_ZN8IasAudio14IasRoutingZone11addPipelineESt10shared_ptrINS_11IasPipelineEE
libias-audio-smartx.so.4:_ZN8IasAudio14IasRoutingZone13prepareStatesEv
libias-audio-smartx.so.4:_ZN8IasAudio14IasRoutingZone14addDerivedZoneESt10shared_ptrIS0_E
libias-audio-smartx.so.4:_ZN8IasAudio14IasRoutingZone14deletePipelineEv
libias-audio-smartx.so.4:_ZN8IasAudio14IasRoutingZone14linkAudioPortsESt10shared_ptrINS_12IasAudioPortEES3_
libias-audio-smartx.so.4:_ZN8IasAudio14IasRoutingZone14setZoneDerivedEbSt10shared_ptrIS0_E
libias-audio-smartx.so.4:_ZN8IasAudio14IasRoutingZone15addBasePipelineESt10shared_ptrINS_11IasPipelineEE
libias-audio-smartx.so.4:_ZN8IasAudio14IasRoutingZone15setSwitchMatrixESt10shared_ptrINS_15IasSwitchMatrixEE
libias-audio-smartx.so.4:_ZN8IasAudio14IasRoutingZone16unlinkAudioPortsESt10shared_ptrINS_12IasAudioPortEES3_
libias-audio-smartx.so.4:_ZN8IasAudio14IasRoutingZone17clearDerivedZonesEv
libias-audio-smartx.so.4:_ZN8IasAudio14IasRoutingZone17clearSwitchMatrixEv
libias-audio-smartx.so.4:_ZN8IasAudio14IasRoutingZone17deleteDerivedZoneESt10shared_ptrIS0_E
libias-audio-smartx.so.4:_ZN8IasAudio14IasRoutingZone17getLinkedSinkPortESt10shared_ptrINS_12IasAudioPortEEPS3_
libias-audio-smartx.so.4:_ZN8IasAudio14IasRoutingZone18deleteBasePipelineEv
libias-audio-smartx.so.4:_ZN8IasAudio14IasRoutingZone19linkAudioSinkDeviceESt10shared_ptrINS_18IasAudioSinkDeviceEE
libias-audio-smartx.so.4:_ZN8IasAudio14IasRoutingZone21unlinkAudioSinkDeviceEv
libias-audio-smartx.so.4:_ZN8IasAudio14IasRoutingZone22createConversionBufferESt10shared_ptrINS_12IasAudioPortEENS_24IasAudioCommonDataFormatEPPNS_18IasAudioRingBufferE
libias-audio-smartx.so.4:_ZN8IasAudio14IasRoutingZone23destroyConversionBufferESt10shared_ptrINS_12IasAudioPortEE
libias-audio-smartx.so.4:_ZN8IasAudio14IasRoutingZone4initEv
libias-audio-smartx.so.4:_ZN8IasAudio14IasRoutingZone4stopEv
libias-audio-smartx.so.4:_ZN8IasAudio14IasRoutingZone5startEv
libias-audio-smartx.so.4:_ZN8IasAudio14IasRoutingZone9setActiveEb
libias-audio-smartx.so.4:_ZN8IasAudio14IasRoutingZoneC1ESt10shared_ptrINS_20IasRoutingZoneParamsEE
libias-audio-smartx.so.4:_ZN8IasAudio14IasRoutingZoneC2ESt10shared_ptrINS_20IasRoutingZoneParamsEE
libias-audio-smartx.so.4:_ZN8IasAudio14IasRoutingZoneD0Ev
libias-audio-smartx.so.4:_ZN8IasAudio14IasRoutingZoneD1Ev
libias-audio-smartx.so.4:_ZN8IasAudio14IasRoutingZoneD2Ev
libias-audio-smartx.so.4:_ZN8IasAudio14IasSetupHelper10getPinNameB5cxx11ESt10shared_ptrINS_11IasAudioPinEE
libias-audio-smartx.so.4:_ZN8IasAudio14IasSetupHelper11getPortNameB5cxx11ESt10shared_ptrINS_12IasAudioPortEE
libias-audio-smartx.so.4:_ZN8IasAudio14IasSetupHelper13getDeviceNameB5cxx11ESt10shared_ptrINS_18IasAudioSinkDeviceEE
libias-audio-smartx.so.4:_ZN8IasAudio14IasSetupHelper13getDeviceNameB5cxx11ESt10shared_ptrINS_20IasAudioSourceDeviceEE
libias-audio-smartx.so.4:_ZN8IasAudio14IasSetupHelper15getPinDirectionB5cxx11ESt10shared_ptrINS_11IasAudioPinEE
libias-audio-smartx.so.4:_ZN8IasAudio14IasSetupHelper16deleteSinkDeviceEPNS_9IasISetupERKNSt7__cxx1112basic_stringIcSt11char_traitsIcESaIcEEE
libias-audio-smartx.so.4:_ZN8IasAudio14IasSetupHelper16getPortDirectionB5cxx11ESt10shared_ptrINS_12IasAudioPortEE
libias-audio-smartx.so.4:_ZN8IasAudio14IasSetupHelper17getPinNumChannelsESt10shared_ptrINS_11IasAudioPinEE
libias-audio-smartx.so.4:_ZN8IasAudio14IasSetupHelper18deleteSourceDeviceEPNS_9IasISetupERKNSt7__cxx1112basic_stringIcSt11char_traitsIcESaIcEEE
libias-audio-smartx.so.4:_ZN8IasAudio14IasSetupHelper18getDeviceClockTypeB5cxx11ESt10shared_ptrINS_18IasAudioSinkDeviceEE
libias-audio-smartx.so.4:_ZN8IasAudio14IasSetupHelper18getDeviceClockTypeB5cxx11ESt10shared_ptrINS_20IasAudioSourceDeviceEE
libias-audio-smartx.so.4:_ZN8IasAudio14IasSetupHelper18getDeviceNumPeriodESt10shared_ptrINS_18IasAudioSinkDeviceEE
libias-audio-smartx.so.4:_ZN8IasAudio14IasSetupHelper18getDeviceNumPeriodESt10shared_ptrINS_20IasAudioSourceDeviceEE
libias-audio-smartx.so.4:_ZN8IasAudio14IasSetupHelper18getPortNumChannelsESt10shared_ptrINS_12IasAudioPortEE
libias-audio-smartx.so.4:_ZN8IasAudio14IasSetupHelper18getRoutingZoneNameB5cxx11ESt10shared_ptrINS_14IasRoutingZoneEE
libias-audio-smartx.so.4:_ZN8IasAudio14IasSetupHelper19getDeviceDataFormatB5cxx11ESt10shared_ptrINS_18IasAudioSinkDeviceEE
libias-audio-smartx.so.4:_ZN8IasAudio14IasSetupHelper19getDeviceDataFormatB5cxx11ESt10shared_ptrINS_20IasAudioSourceDeviceEE
libias-audio-smartx.so.4:_ZN8IasAudio14IasSetupHelper19getDevicePeriodSizeESt10shared_ptrINS_18IasAudioSinkDeviceEE
libias-audio-smartx.so.4:_ZN8IasAudio14IasSetupHelper19getDevicePeriodSizeESt10shared_ptrINS_20IasAudioSourceDeviceEE
libias-audio-smartx.so.4:_ZN8IasAudio14IasSetupHelper19getDeviceSampleRateESt10shared_ptrINS_18IasAudioSinkDeviceEE
libias-audio-smartx.so.4:_ZN8IasAudio14IasSetupHelper19getDeviceSampleRateESt10shared_ptrINS_20IasAudioSourceDeviceEE
libias-audio-smartx.so.4:_ZN8IasAudio14IasSetupHelper20getDeviceNumChannelsESt10shared_ptrINS_18IasAudioSinkDeviceEE
libias-audio-smartx.so.4:_ZN8IasAudio14IasSetupHelper20getDeviceNumChannelsESt10shared_ptrINS_20IasAudioSourceDeviceEE
libias-audio-smartx.so.4:_ZN8IasAudio14IasSetupHelper21createAudioSinkDeviceEPNS_9IasISetupERKNS_20IasAudioDeviceParamsERKSt6vectorIiSaIiEERKS6_IjSaIjEESE_PSt10shared_ptrINS_18IasAudioSinkDeviceEEPSF_INS_14IasRoutingZoneEEPS6_ISF_INS_12IasAudioPortEESaISN_EESQ_
libias-audio-smartx.so.4:_ZN8IasAudio14IasSetupHelper21createAudioSinkDeviceEPNS_9IasISetupERKNS_20IasAudioDeviceParamsEiPSt10shared_ptrINS_18IasAudioSinkDeviceEEPS6_INS_14IasRoutingZoneEE
libias-audio-smartx.so.4:_ZN8IasAudio14IasSetupHelper22getAudioSinkDeviceNameB5cxx11ESt10shared_ptrINS_18IasAudioSinkDeviceEE
libias-audio-smartx.so.4:_ZN8IasAudio14IasSetupHelper23createAudioSourceDeviceEPNS_9IasISetupERKNS_20IasAudioDeviceParamsEiPSt10shared_ptrINS_20IasAudioSourceDeviceEE
libias-audio-smartx.so.4:_ZN8IasAudio14IasSetupHelper24getAudioSourceDeviceNameB5cxx11ESt10shared_ptrINS_20IasAudioSourceDeviceEE
libias-audio-smartx.so.4:_ZN8IasAudio14IasSetupHelper26getDevicePeriodsAsrcBufferESt10shared_ptrINS_18IasAudioSinkDeviceEE
libias-audio-smartx.so.4:_ZN8IasAudio14IasSetupHelper26getDevicePeriodsAsrcBufferESt10shared_ptrINS_20IasAudioSourceDeviceEE
libias-audio-smartx.so.4:_ZN8IasAudio14IasSetupHelper9getPortIdESt10shared_ptrINS_12IasAudioPortEE
libias-audio-smartx.so.4:_ZN8IasAudio14IasThreadNames11getInstanceEv
libias-audio-smartx.so.4:_ZN8IasAudio14IasThreadNames13setThreadNameENS0_13IasThreadTypeERKNSt7__cxx1112basic_stringIcSt11char_traitsIcESaIcEEE
libias-audio-smartx.so.4:_ZN8IasAudio14IasThreadNamesC1Ev
libias-audio-smartx.so.4:_ZN8IasAudio14IasThreadNamesC2Ev
libias-audio-smartx.so.4:_ZN8IasAudio14IasThreadNamesD1Ev
libias-audio-smartx.so.4:_ZN8IasAudio14IasThreadNamesD2Ev
libias-audio-smartx.so.4:_ZN8IasAudio15IasEventHandler18receivedSetupEventEPNS_13IasSetupEventE
libias-audio-smartx.so.4:_ZN8IasAudio15IasEventHandler19receivedModuleEventEPNS_14IasModuleEventE
libias-audio-smartx.so.4:_ZN8IasAudio15IasEventHandler23receivedConnectionEventEPNS_18IasConnectionEventE
libias-audio-smartx.so.4:_ZN8IasAudio15IasEventHandlerC1Ev
libias-audio-smartx.so.4:_ZN8IasAudio15IasEventHandlerC2Ev
libias-audio-smartx.so.4:_ZN8IasAudio15IasEventHandlerD0Ev
libias-audio-smartx.so.4:_ZN8IasAudio15IasEventHandlerD1Ev
libias-audio-smartx.so.4:_ZN8IasAudio15IasEventHandlerD2Ev
libias-audio-smartx.so.4:_ZN8IasAudio15IasModuleLoader10loadModuleERKNSt7__cxx1112basic_stringIcSt11char_traitsIcESaIcEEES8_S8_RKNS_13IasModuleInfoE
libias-audio-smartx.so.4:_ZN8IasAudio15IasModuleLoader11loadModulesENSt7__cxx1112basic_stringIcSt11char_traitsIcESaIcEEERKS6_S8_RKNS_13IasModuleInfoE
libias-audio-smartx.so.4:_ZN8IasAudio15IasModuleLoader12unloadModuleEPNS_18IasModuleInterfaceE
libias-audio-smartx.so.4:_ZN8IasAudio15IasModuleLoader12unloadModuleERKNSt7__cxx1112basic_stringIcSt11char_traitsIcESaIcEEE
libias-audio-smartx.so.4:_ZN8IasAudio15IasModuleLoader7findKeyERKNSt7__cxx1112basic_stringIcSt11char_traitsIcESaIcEEE
libias-audio-smartx.so.4:_ZN8IasAudio15IasModuleLoaderC1Ev
libias-audio-smartx.so.4:_ZN8IasAudio15IasModuleLoaderC2Ev
libias-audio-smartx.so.4:_ZN8IasAudio15IasModuleLoaderD1Ev
libias-audio-smartx.so.4:_ZN8IasAudio15IasModuleLoaderD2Ev
libias-audio-smartx.so.4:_ZN8IasAudio15IasPluginEngine12createModuleEPNS_26IasIGenericAudioCompConfigERKNSt7__cxx1112basic_stringIcSt11char_traitsIcESaIcEEESA_PPNS_19IasGenericAudioCompE
libias-audio-smartx.so.4:_ZN8IasAudio15IasPluginEngine13destroyModuleEPNS_19IasGenericAudioCompE
libias-audio-smartx.so.4:_ZN8IasAudio15IasPluginEngine18createModuleConfigEPPNS_26IasIGenericAudioCompConfigE
libias-audio-smartx.so.4:_ZN8IasAudio15IasPluginEngine19loadPluginLibrariesEv
libias-audio-smartx.so.4:_ZN8IasAudio15IasPluginEngineC1ESt10shared_ptrINS_19IasICmdRegistrationEE
libias-audio-smartx.so.4:_ZN8IasAudio15IasPluginEngineC2ESt10shared_ptrINS_19IasICmdRegistrationEE
libias-audio-smartx.so.4:_ZN8IasAudio15IasPluginEngineD0Ev
libias-audio-smartx.so.4:_ZN8IasAudio15IasPluginEngineD1Ev
libias-audio-smartx.so.4:_ZN8IasAudio15IasPluginEngineD2Ev
libias-audio-smartx.so.4:_ZN8IasAudio15IasRunnerThread10deleteZoneESt10shared_ptrINS_26IasRoutingZoneWorkerThreadEE
libias-audio-smartx.so.4:_ZN8IasAudio15IasRunnerThread3runEv
libias-audio-smartx.so.4:_ZN8IasAudio15IasRunnerThread4stopEv
libias-audio-smartx.so.4:_ZN8IasAudio15IasRunnerThread4wakeEv
libias-audio-smartx.so.4:_ZN8IasAudio15IasRunnerThread5startEv
libias-audio-smartx.so.4:_ZN8IasAudio15IasRunnerThread7addZoneESt4pairISt10shared_ptrINS_26IasRoutingZoneWorkerThreadEENS_20IasDerivedZoneParamsEE
libias-audio-smartx.so.4:_ZN8IasAudio15IasRunnerThread7hasZoneESt10shared_ptrINS_26IasRoutingZoneWorkerThreadEE
libias-audio-smartx.so.4:_ZN8IasAudio15IasRunnerThread7isEmptyEv
libias-audio-smartx.so.4:_ZN8IasAudio15IasRunnerThread8afterRunEv
libias-audio-smartx.so.4:_ZN8IasAudio15IasRunnerThread8shutDownEv
libias-audio-smartx.so.4:_ZN8IasAudio15IasRunnerThread9addPeriodEj
libias-audio-smartx.so.4:_ZN8IasAudio15IasRunnerThread9beforeRunEv
libias-audio-smartx.so.4:_ZN8IasAudio15IasRunnerThreadC1EjNSt7__cxx1112basic_stringIcSt11char_traitsIcESaIcEEE
libias-audio-smartx.so.4:_ZN8IasAudio15IasRunnerThreadC2EjNSt7__cxx1112basic_stringIcSt11char_traitsIcESaIcEEE
libias-audio-smartx.so.4:_ZN8IasAudio15IasRunnerThreadD0Ev
libias-audio-smartx.so.4:_ZN8IasAudio15IasRunnerThreadD1Ev
libias-audio-smartx.so.4:_ZN8IasAudio15IasRunnerThreadD2Ev
libias-audio-smartx.so.4:_ZN8IasAudio15IasSmartXClient12putEventTypeENS_14IasAudioDevice12IasEventTypeE
libias-audio-smartx.so.4:_ZN8IasAudio15IasSmartXClient13getRingBufferEPPNS_18IasAudioRingBufferE
libias-audio-smartx.so.4:_ZN8IasAudio15IasSmartXClient16enableEventQueueEb
libias-audio-smartx.so.4:_ZN8IasAudio15IasSmartXClient16getNextEventTypeEv
libias-audio-smartx.so.4:_ZN8IasAudio15IasSmartXClient16setHwConstraintsEv
libias-audio-smartx.so.4:_ZN8IasAudio15IasSmartXClient4initENS_13IasDeviceTypeE
libias-audio-smartx.so.4:_ZN8IasAudio15IasSmartXClient9ipcThreadEv
libias-audio-smartx.so.4:_ZN8IasAudio15IasSmartXClientC1ESt10shared_ptrINS_20IasAudioDeviceParamsEE
libias-audio-smartx.so.4:_ZN8IasAudio15IasSmartXClientC2ESt10shared_ptrINS_20IasAudioDeviceParamsEE
libias-audio-smartx.so.4:_ZN8IasAudio15IasSmartXClientD1Ev
libias-audio-smartx.so.4:_ZN8IasAudio15IasSmartXClientD2Ev
libias-audio-smartx.so.4:_ZN8IasAudio15IasStreamParamsC1Ejjj
libias-audio-smartx.so.4:_ZN8IasAudio15IasStreamParamsC2Ejjj
libias-audio-smartx.so.4:_ZN8IasAudio15IasStreamParamsD0Ev
libias-audio-smartx.so.4:_ZN8IasAudio15IasStreamParamsD1Ev
libias-audio-smartx.so.4:_ZN8IasAudio15IasStreamParamsD2Ev
libias-audio-smartx.so.4:_ZN8IasAudio15IasSwitchMatrix10disconnectESt10shared_ptrINS_12IasAudioPortEES3_
libias-audio-smartx.so.4:_ZN8IasAudio15IasSwitchMatrix10unlockJobsEv
libias-audio-smartx.so.4:_ZN8IasAudio15IasSwitchMatrix11setCopySizeEj
libias-audio-smartx.so.4:_ZN8IasAudio15IasSwitchMatrix11stopProbingESt10shared_ptrINS_12IasAudioPortEE
libias-audio-smartx.so.4:_ZN8IasAudio15IasSwitchMatrix12dummyConnectESt10shared_ptrINS_12IasAudioPortEES3_
libias-audio-smartx.so.4:_ZN8IasAudio15IasSwitchMatrix12startProbingESt10shared_ptrINS_12IasAudioPortEERKNSt7__cxx1112basic_stringIcSt11char_traitsIcESaIcEEEbjPNS_18IasAudioRingBufferEj
libias-audio-smartx.so.4:_ZN8IasAudio15IasSwitchMatrix13addBufferTaskESt10shared_ptrINS_12IasAudioPortEEPS1_INS_13IasBufferTaskEES3_
libias-audio-smartx.so.4:_ZN8IasAudio15IasSwitchMatrix14findBufferTaskEPNS_18IasAudioRingBufferEPSt10shared_ptrINS_13IasBufferTaskEE
libias-audio-smartx.so.4:_ZN8IasAudio15IasSwitchMatrix15dummyDisconnectESt10shared_ptrINS_12IasAudioPortEE
libias-audio-smartx.so.4:_ZN8IasAudio15IasSwitchMatrix16removeBufferTaskEPNS_18IasAudioRingBufferE
libias-audio-smartx.so.4:_ZN8IasAudio15IasSwitchMatrix17removeConnectionsESt10shared_ptrINS_12IasAudioPortEE
libias-audio-smartx.so.4:_ZN8IasAudio15IasSwitchMatrix4initERKNSt7__cxx1112basic_stringIcSt11char_traitsIcESaIcEEEjj
libias-audio-smartx.so.4:_ZN8IasAudio15IasSwitchMatrix7connectESt10shared_ptrINS_12IasAudioPortEES3_
libias-audio-smartx.so.4:_ZN8IasAudio15IasSwitchMatrix7lockJobESt10shared_ptrINS_12IasAudioPortEE
libias-audio-smartx.so.4:_ZN8IasAudio15IasSwitchMatrix7triggerEv
libias-audio-smartx.so.4:_ZN8IasAudio15IasSwitchMatrixC1Ev
libias-audio-smartx.so.4:_ZN8IasAudio15IasSwitchMatrixC2Ev
libias-audio-smartx.so.4:_ZN8IasAudio15IasSwitchMatrixD0Ev
libias-audio-smartx.so.4:_ZN8IasAudio15IasSwitchMatrixD1Ev
libias-audio-smartx.so.4:_ZN8IasAudio15IasSwitchMatrixD2Ev
libias-audio-smartx.so.4:_ZN8IasAudio16IasCmdDispatcher11dispatchCmdERKNSt7__cxx1112basic_stringIcSt11char_traitsIcESaIcEEERKNS_13IasPropertiesERS9_
libias-audio-smartx.so.4:_ZN8IasAudio16IasCmdDispatcher25registerModuleIdInterfaceERKNSt7__cxx1112basic_stringIcSt11char_traitsIcESaIcEEEPNS_12IasIModuleIdE
libias-audio-smartx.so.4:_ZN8IasAudio16IasCmdDispatcher27unregisterModuleIdInterfaceERKNSt7__cxx1112basic_stringIcSt11char_traitsIcESaIcEEE
libias-audio-smartx.so.4:_ZN8IasAudio16IasCmdDispatcherC1Ev
libias-audio-smartx.so.4:_ZN8IasAudio16IasCmdDispatcherC2Ev
libias-audio-smartx.so.4:_ZN8IasAudio16IasCmdDispatcherD0Ev
libias-audio-smartx.so.4:_ZN8IasAudio16IasCmdDispatcherD1Ev
libias-audio-smartx.so.4:_ZN8IasAudio16IasCmdDispatcherD2Ev
libias-audio-smartx.so.4:_ZN8IasAudio16IasConfiguration11addPipelineERKNSt7__cxx1112basic_stringIcSt11char_traitsIcESaIcEEESt10shared_ptrINS_11IasPipelineEE
libias-audio-smartx.so.4:_ZN8IasAudio16IasConfiguration11getPipelineERKNSt7__cxx1112basic_stringIcSt11char_traitsIcESaIcEEEPSt10shared_ptrINS_11IasPipelineEE
libias-audio-smartx.so.4:_ZN8IasAudio16IasConfiguration12getInputPortEiPSt10shared_ptrINS_12IasAudioPortEE
libias-audio-smartx.so.4:_ZN8IasAudio16IasConfiguration12getPinByNameERKNSt7__cxx1112basic_stringIcSt11char_traitsIcESaIcEEEPSt10shared_ptrINS_11IasAudioPinEE
libias-audio-smartx.so.4:_ZN8IasAudio16IasConfiguration13getOutputPortEiPSt10shared_ptrINS_12IasAudioPortEE
libias-audio-smartx.so.4:_ZN8IasAudio16IasConfiguration13getPortByNameERKNSt7__cxx1112basic_stringIcSt11char_traitsIcESaIcEEEPSt10shared_ptrINS_12IasAudioPortEE
libias-audio-smartx.so.4:_ZN8IasAudio16IasConfiguration14addAudioDeviceERKNSt7__cxx1112basic_stringIcSt11char_traitsIcESaIcEEESt10shared_ptrINS_18IasAudioSinkDeviceEE
libias-audio-smartx.so.4:_ZN8IasAudio16IasConfiguration14addAudioDeviceERKNSt7__cxx1112basic_stringIcSt11char_traitsIcESaIcEEESt10shared_ptrINS_20IasAudioSourceDeviceEE
libias-audio-smartx.so.4:_ZN8IasAudio16IasConfiguration14addRoutingZoneERKNSt7__cxx1112basic_stringIcSt11char_traitsIcESaIcEEESt10shared_ptrINS_14IasRoutingZoneEE
libias-audio-smartx.so.4:_ZN8IasAudio16IasConfiguration14deletePipelineERKNSt7__cxx1112basic_stringIcSt11char_traitsIcESaIcEEE
libias-audio-smartx.so.4:_ZN8IasAudio16IasConfiguration14getAudioDeviceERKNSt7__cxx1112basic_stringIcSt11char_traitsIcESaIcEEEPSt10shared_ptrINS_18IasAudioSinkDeviceEE
libias-audio-smartx.so.4:_ZN8IasAudio16IasConfiguration14getAudioDeviceERKNSt7__cxx1112basic_stringIcSt11char_traitsIcESaIcEEEPSt10shared_ptrINS_20IasAudioSourceDeviceEE
libias-audio-smartx.so.4:_ZN8IasAudio16IasConfiguration14getRoutingZoneERKNSt7__cxx1112basic_stringIcSt11char_traitsIcESaIcEEEPSt10shared_ptrINS_14IasRoutingZoneEE
libias-audio-smartx.so.4:_ZN8IasAudio16IasConfiguration14getRoutingZoneESt10shared_ptrINS_11IasPipelineEEPS1_INS_14IasRoutingZoneEE
libias-audio-smartx.so.4:_ZN8IasAudio16IasConfiguration15deleteInputPortEi
libias-audio-smartx.so.4:_ZN8IasAudio16IasConfiguration16addLogicalSourceENSt7__cxx1112basic_stringIcSt11char_traitsIcESaIcEEEi
libias-audio-smartx.so.4:_ZN8IasAudio16IasConfiguration16deleteOutputPortEi
libias-audio-smartx.so.4:_ZN8IasAudio16IasConfiguration16deletePortByNameENSt7__cxx1112basic_stringIcSt11char_traitsIcESaIcEEE
libias-audio-smartx.so.4:_ZN8IasAudio16IasConfiguration17deleteAudioDeviceERKNSt7__cxx1112basic_stringIcSt11char_traitsIcESaIcEEE
libias-audio-smartx.so.4:_ZN8IasAudio16IasConfiguration17deleteRoutingZoneERKNSt7__cxx1112basic_stringIcSt11char_traitsIcESaIcEEE
libias-audio-smartx.so.4:_ZN8IasAudio16IasConfiguration20findGroupedSourceIdsEi
libias-audio-smartx.so.4:_ZN8IasAudio16IasConfiguration22getPropertiesForModuleESt10shared_ptrINS_19IasProcessingModuleEE
libias-audio-smartx.so.4:_ZN8IasAudio16IasConfiguration22setPropertiesForModuleESt10shared_ptrINS_19IasProcessingModuleEERKNS_13IasPropertiesE
libias-audio-smartx.so.4:_ZN8IasAudio16IasConfiguration6addPinESt10shared_ptrINS_11IasAudioPinEE
libias-audio-smartx.so.4:_ZN8IasAudio16IasConfiguration7addPortESt10shared_ptrINS_12IasAudioPortEE
libias-audio-smartx.so.4:_ZN8IasAudio16IasConfiguration9removePinENSt7__cxx1112basic_stringIcSt11char_traitsIcESaIcEEE
libias-audio-smartx.so.4:_ZN8IasAudio16IasConfigurationC1Ev
libias-audio-smartx.so.4:_ZN8IasAudio16IasConfigurationC2Ev
libias-audio-smartx.so.4:_ZN8IasAudio16IasConfigurationD1Ev
libias-audio-smartx.so.4:_ZN8IasAudio16IasConfigurationD2Ev
libias-audio-smartx.so.4:_ZN8IasAudio16IasEventProvider11getInstanceEv
libias-audio-smartx.so.4:_ZN8IasAudio16IasEventProvider12getNextEventEPSt10shared_ptrINS_8IasEventEE
libias-audio-smartx.so.4:_ZN8IasAudio16IasEventProvider12waitForEventEj
libias-audio-smartx.so.4:_ZN8IasAudio16IasEventProvider15clearEventQueueEv
libias-audio-smartx.so.4:_ZN8IasAudio16IasEventProvider16createSetupEventEv
libias-audio-smartx.so.4:_ZN8IasAudio16IasEventProvider17createModuleEventEv
libias-audio-smartx.so.4:_ZN8IasAudio16IasEventProvider17destroySetupEventESt10shared_ptrINS_13IasSetupEventEE
libias-audio-smartx.so.4:_ZN8IasAudio16IasEventProvider18destroyModuleEventESt10shared_ptrINS_14IasModuleEventEE
libias-audio-smartx.so.4:_ZN8IasAudio16IasEventProvider21createConnectionEventEv
libias-audio-smartx.so.4:_ZN8IasAudio16IasEventProvider22destroyConnectionEventESt10shared_ptrINS_18IasConnectionEventEE
libias-audio-smartx.so.4:_ZN8IasAudio16IasEventProvider4sendESt10shared_ptrINS_8IasEventEE
libias-audio-smartx.so.4:_ZN8IasAudio16IasEventProviderC1Ev
libias-audio-smartx.so.4:_ZN8IasAudio16IasEventProviderC2Ev
libias-audio-smartx.so.4:_ZN8IasAudio16IasEventProviderD1Ev
libias-audio-smartx.so.4:_ZN8IasAudio16IasEventProviderD2Ev
libias-audio-smartx.so.4:_ZN8IasAudio16IasPluginLibrary12createModuleEPKNS_26IasIGenericAudioCompConfigERKNSt7__cxx1112basic_stringIcSt11char_traitsIcESaIcEEESB_
libias-audio-smartx.so.4:_ZN8IasAudio16IasPluginLibrary13destroyModuleEPNS_19IasGenericAudioCompE
libias-audio-smartx.so.4:_ZN8IasAudio16IasPluginLibrary22registerFactoryMethodsERKNSt7__cxx1112basic_stringIcSt11char_traitsIcESaIcEEEPFPNS_19IasGenericAudioCompEPKNS_26IasIGenericAudioCompConfigES8_S8_EPFvSA_E
libias-audio-smartx.so.4:_ZN8IasAudio16IasPluginLibrary24unregisterFactoryMethodsERKNSt7__cxx1112basic_stringIcSt11char_traitsIcESaIcEEE
libias-audio-smartx.so.4:_ZN8IasAudio16IasPluginLibraryC1ERKNSt7__cxx1112basic_stringIcSt11char_traitsIcESaIcEEE
libias-audio-smartx.so.4:_ZN8IasAudio16IasPluginLibraryC2ERKNSt7__cxx1112basic_stringIcSt11char_traitsIcESaIcEEE
libias-audio-smartx.so.4:_ZN8IasAudio16IasPluginLibraryD0Ev
libias-audio-smartx.so.4:_ZN8IasAudio16IasPluginLibraryD1Ev
libias-audio-smartx.so.4:_ZN8IasAudio16IasPluginLibraryD2Ev
libias-audio-smartx.so.4:_ZN8IasAudio17IasDecoratorGuardC1Ev
libias-audio-smartx.so.4:_ZN8IasAudio17IasDecoratorGuardC2Ev
libias-audio-smartx.so.4:_ZN8IasAudio17IasDecoratorGuardD0Ev
libias-audio-smartx.so.4:_ZN8IasAudio17IasDecoratorGuardD1Ev
libias-audio-smartx.so.4:_ZN8IasAudio17IasDecoratorGuardD2Ev
libias-audio-smartx.so.4:_ZN8IasAudio17IasProcessingImpl7sendCmdERKNSt7__cxx1112basic_stringIcSt11char_traitsIcESaIcEEERKNS_13IasPropertiesERS9_
libias-audio-smartx.so.4:_ZN8IasAudio17IasProcessingImplC1ESt10shared_ptrINS_16IasCmdDispatcherEE
libias-audio-smartx.so.4:_ZN8IasAudio17IasProcessingImplC2ESt10shared_ptrINS_16IasCmdDispatcherEE
libias-audio-smartx.so.4:_ZN8IasAudio17IasProcessingImplD0Ev
libias-audio-smartx.so.4:_ZN8IasAudio17IasProcessingImplD1Ev
libias-audio-smartx.so.4:_ZN8IasAudio17IasProcessingImplD2Ev
libias-audio-smartx.so.4:_ZN8IasAudio18IasAudioBufferPool14doReturnBufferEPNS_14IasAudioBufferE
libias-audio-smartx.so.4:_ZN8IasAudio18IasAudioBufferPool9getBufferEv
libias-audio-smartx.so.4:_ZN8IasAudio18IasAudioBufferPoolC1Ej
libias-audio-smartx.so.4:_ZN8IasAudio18IasAudioBufferPoolC2Ej
libias-audio-smartx.so.4:_ZN8IasAudio18IasAudioBufferPoolD0Ev
libias-audio-smartx.so.4:_ZN8IasAudio18IasAudioBufferPoolD1Ev
libias-audio-smartx.so.4:_ZN8IasAudio18IasAudioBufferPoolD2Ev
libias-audio-smartx.so.4:_ZN8IasAudio18IasAudioSinkDevice10unlinkZoneEv
libias-audio-smartx.so.4:_ZN8IasAudio18IasAudioSinkDevice8linkZoneESt10shared_ptrINS_14IasRoutingZoneEE
libias-audio-smartx.so.4:_ZN8IasAudio18IasAudioSinkDeviceC1ESt10shared_ptrINS_20IasAudioDeviceParamsEE
libias-audio-smartx.so.4:_ZN8IasAudio18IasAudioSinkDeviceC2ESt10shared_ptrINS_20IasAudioDeviceParamsEE
libias-audio-smartx.so.4:_ZN8IasAudio18IasAudioSinkDeviceD0Ev
libias-audio-smartx.so.4:_ZN8IasAudio18IasAudioSinkDeviceD1Ev
libias-audio-smartx.so.4:_ZN8IasAudio18IasAudioSinkDeviceD2Ev
libias-audio-smartx.so.4:_ZN8IasAudio18IasBaseAudioStreamC1ERKNSt7__cxx1112basic_stringIcSt11char_traitsIcESaIcEEEijNS0_19IasAudioStreamTypesEb
libias-audio-smartx.so.4:_ZN8IasAudio18IasBaseAudioStreamC2ERKNSt7__cxx1112basic_stringIcSt11char_traitsIcESaIcEEEijNS0_19IasAudioStreamTypesEb
libias-audio-smartx.so.4:_ZN8IasAudio18IasBaseAudioStreamD0Ev
libias-audio-smartx.so.4:_ZN8IasAudio18IasBaseAudioStreamD1Ev
libias-audio-smartx.so.4:_ZN8IasAudio18IasBaseAudioStreamD2Ev
libias-audio-smartx.so.4:_ZN8IasAudio18IasBundleSequencer20getBundleAssignmentsEjPSt6vectorINS_19IasBundleAssignmentESaIS2_EE
libias-audio-smartx.so.4:_ZN8IasAudio18IasBundleSequencer26getSimpleBundleAssignmentsEjPSt6vectorIPNS_21IasAudioChannelBundleESaIS3_EEPS1_INS_19IasBundleAssignmentESaIS7_EE
libias-audio-smartx.so.4:_ZN8IasAudio18IasBundleSequencer32getMultiChannelBundleAssignmentsEjPSt6vectorIPNS_21IasAudioChannelBundleESaIS3_EEPS1_INS_19IasBundleAssignmentESaIS7_EE
libias-audio-smartx.so.4:_ZN8IasAudio18IasBundleSequencer4initESt10shared_ptrINS_24IasAudioChainEnvironmentEE
libias-audio-smartx.so.4:_ZN8IasAudio18IasBundleSequencerC1Ev
libias-audio-smartx.so.4:_ZN8IasAudio18IasBundleSequencerC2Ev
libias-audio-smartx.so.4:_ZN8IasAudio18IasBundleSequencerD0Ev
libias-audio-smartx.so.4:_ZN8IasAudio18IasBundleSequencerD1Ev
libias-audio-smartx.so.4:_ZN8IasAudio18IasBundleSequencerD2Ev
libias-audio-smartx.so.4:_ZN8IasAudio18IasConnectionEvent6acceptERNS_15IasEventHandlerE
libias-audio-smartx.so.4:_ZN8IasAudio18IasConnectionEventC1Ev
libias-audio-smartx.so.4:_ZN8IasAudio18IasConnectionEventC2Ev
libias-audio-smartx.so.4:_ZN8IasAudio18IasConnectionEventD0Ev
libias-audio-smartx.so.4:_ZN8IasAudio18IasConnectionEventD1Ev
libias-audio-smartx.so.4:_ZN8IasAudio18IasConnectionEventD2Ev
libias-audio-smartx.so.4:_ZN8IasAudio18IasModuleInterfaceC1Ev
libias-audio-smartx.so.4:_ZN8IasAudio18IasModuleInterfaceC2Ev
libias-audio-smartx.so.4:_ZN8IasAudio18IasModuleInterfaceD0Ev
libias-audio-smartx.so.4:_ZN8IasAudio18IasModuleInterfaceD1Ev
libias-audio-smartx.so.4:_ZN8IasAudio18IasModuleInterfaceD2Ev
libias-audio-smartx.so.4:_ZN8IasAudio18IasSwitchMatrixJob10startProbeERKNSt7__cxx1112basic_stringIcSt11char_traitsIcESaIcEEEbjNS_24IasAudioCommonDataFormatEjjj
libias-audio-smartx.so.4:_ZN8IasAudio18IasSwitchMatrixJob14updateSrcAreasEPNS_12IasAudioAreaE
libias-audio-smartx.so.4:_ZN8IasAudio18IasSwitchMatrixJob17sampleRateConvertEjjPjS1_
libias-audio-smartx.so.4:_ZN8IasAudio18IasSwitchMatrixJob4copyEjjPjS1_
libias-audio-smartx.so.4:_ZN8IasAudio18IasSwitchMatrixJob4initEjj
libias-audio-smartx.so.4:_ZN8IasAudio18IasSwitchMatrixJob6unlockEv
libias-audio-smartx.so.4:_ZN8IasAudio18IasSwitchMatrixJob7executeEjjPjS1_
libias-audio-smartx.so.4:_ZN8IasAudio18IasSwitchMatrixJob9stopProbeEv
libias-audio-smartx.so.4:_ZN8IasAudio18IasSwitchMatrixJobC1ESt10shared_ptrINS_12IasAudioPortEES3_
libias-audio-smartx.so.4:_ZN8IasAudio18IasSwitchMatrixJobC2ESt10shared_ptrINS_12IasAudioPortEES3_
libias-audio-smartx.so.4:_ZN8IasAudio18IasSwitchMatrixJobD0Ev
libias-audio-smartx.so.4:_ZN8IasAudio18IasSwitchMatrixJobD1Ev
libias-audio-smartx.so.4:_ZN8IasAudio18IasSwitchMatrixJobD2Ev
libias-audio-smartx.so.4:_ZN8IasAudio19IasBundleAssignmentC1EPNS_21IasAudioChannelBundleEjj
libias-audio-smartx.so.4:_ZN8IasAudio19IasBundleAssignmentC2EPNS_21IasAudioChannelBundleEjj
libias-audio-smartx.so.4:_ZN8IasAudio19IasBundleAssignmentD0Ev
libias-audio-smartx.so.4:_ZN8IasAudio19IasBundleAssignmentD1Ev
libias-audio-smartx.so.4:_ZN8IasAudio19IasBundleAssignmentD2Ev
libias-audio-smartx.so.4:_ZN8IasAudio19IasDiagnosticStream10stopStreamEv
libias-audio-smartx.so.4:_ZN8IasAudio19IasDiagnosticStream11changeStateENS0_21IasTriggerStateChangeE
libias-audio-smartx.so.4:_ZN8IasAudio19IasDiagnosticStream11startStreamEv
libias-audio-smartx.so.4:_ZN8IasAudio19IasDiagnosticStream13errorOccurredEv
libias-audio-smartx.so.4:_ZN8IasAudio19IasDiagnosticStream20writeAlsaHandlerDataEmmmmjjf
libias-audio-smartx.so.4:_ZN8IasAudio19IasDiagnosticStream8copyFileEv
libias-audio-smartx.so.4:_ZN8IasAudio19IasDiagnosticStream8openFileEv
libias-audio-smartx.so.4:_ZN8IasAudio19IasDiagnosticStream8toStringB5cxx11ERKNS0_14IasStreamStateE
libias-audio-smartx.so.4:_ZN8IasAudio19IasDiagnosticStream8toStringB5cxx11ERKNS0_21IasTriggerStateChangeE
libias-audio-smartx.so.4:_ZN8IasAudio19IasDiagnosticStream9closeFileEv
libias-audio-smartx.so.4:_ZN8IasAudio19IasDiagnosticStream9isStartedEv
libias-audio-smartx.so.4:_ZN8IasAudio19IasDiagnosticStream9isStoppedEv
libias-audio-smartx.so.4:_ZN8IasAudio19IasDiagnosticStreamC1ERKNS0_9IasParamsERNS_22IasDiagnosticLogWriterE
libias-audio-smartx.so.4:_ZN8IasAudio19IasDiagnosticStreamC2ERKNS0_9IasParamsERNS_22IasDiagnosticLogWriterE
libias-audio-smartx.so.4:_ZN8IasAudio19IasDiagnosticStreamD0Ev
libias-audio-smartx.so.4:_ZN8IasAudio19IasDiagnosticStreamD1Ev
libias-audio-smartx.so.4:_ZN8IasAudio19IasDiagnosticStreamD2Ev
libias-audio-smartx.so.4:_ZN8IasAudio19IasGenericAudioCompC1ERKNSt7__cxx1112basic_stringIcSt11char_traitsIcESaIcEEES8_
libias-audio-smartx.so.4:_ZN8IasAudio19IasGenericAudioCompC2ERKNSt7__cxx1112basic_stringIcSt11char_traitsIcESaIcEEES8_
libias-audio-smartx.so.4:_ZN8IasAudio19IasGenericAudioCompD0Ev
libias-audio-smartx.so.4:_ZN8IasAudio19IasGenericAudioCompD1Ev
libias-audio-smartx.so.4:_ZN8IasAudio19IasGenericAudioCompD2Ev
libias-audio-smartx.so.4:_ZN8IasAudio19IasProcessingModule13addToPipelineESt10shared_ptrINS_11IasPipelineEERKNSt7__cxx1112basic_stringIcSt11char_traitsIcESaIcEEE
libias-audio-smartx.so.4:_ZN8IasAudio19IasProcessingModule16addAudioInOutPinESt10shared_ptrINS_11IasAudioPinEE
libias-audio-smartx.so.4:_ZN8IasAudio19IasProcessingModule18addAudioPinMappingESt10shared_ptrINS_11IasAudioPinEES3_
libias-audio-smartx.so.4:_ZN8IasAudio19IasProcessingModule18deleteFromPipelineEv
libias-audio-smartx.so.4:_ZN8IasAudio19IasProcessingModule19deleteAudioInOutPinESt10shared_ptrINS_11IasAudioPinEE
libias-audio-smartx.so.4:_ZN8IasAudio19IasProcessingModule21deleteAudioPinMappingESt10shared_ptrINS_11IasAudioPinEES3_
libias-audio-smartx.so.4:_ZN8IasAudio19IasProcessingModule24setGenericAudioComponentEPNS_19IasGenericAudioCompE
libias-audio-smartx.so.4:_ZN8IasAudio19IasProcessingModuleC1ESt10shared_ptrINS_25IasProcessingModuleParamsEE
libias-audio-smartx.so.4:_ZN8IasAudio19IasProcessingModuleC2ESt10shared_ptrINS_25IasProcessingModuleParamsEE
libias-audio-smartx.so.4:_ZN8IasAudio19IasProcessingModuleD0Ev
libias-audio-smartx.so.4:_ZN8IasAudio19IasProcessingModuleD1Ev
libias-audio-smartx.so.4:_ZN8IasAudio19IasProcessingModuleD2Ev
libias-audio-smartx.so.4:_ZN8IasAudio19isRoutingZoneActiveESt10shared_ptrINS_14IasRoutingZoneEE
libias-audio-smartx.so.4:_ZN8IasAudio20IasAudioSourceDeviceC1ESt10shared_ptrINS_20IasAudioDeviceParamsEE
libias-audio-smartx.so.4:_ZN8IasAudio20IasAudioSourceDeviceC2ESt10shared_ptrINS_20IasAudioDeviceParamsEE
libias-audio-smartx.so.4:_ZN8IasAudio20IasAudioSourceDeviceD0Ev
libias-audio-smartx.so.4:_ZN8IasAudio20IasAudioSourceDeviceD1Ev
libias-audio-smartx.so.4:_ZN8IasAudio20IasAudioSourceDeviceD2Ev
libias-audio-smartx.so.4:_ZN8IasAudio20IasSimpleAudioStream13setPropertiesERKNSt7__cxx1112basic_stringIcSt11char_traitsIcESaIcEEEijNS_18IasBaseAudioStream15IasSampleLayoutEjNS9_19IasAudioStreamTypesEb
libias-audio-smartx.so.4:_ZN8IasAudio20IasSimpleAudioStream15asBundledStreamEPNS_21IasBundledAudioStreamE
libias-audio-smartx.so.4:_ZN8IasAudio20IasSimpleAudioStream16writeFromBundledERKSt6vectorIPfSaIS2_EE
libias-audio-smartx.so.4:_ZN8IasAudio20IasSimpleAudioStream19asInterleavedStreamEPS0_
libias-audio-smartx.so.4:_ZN8IasAudio20IasSimpleAudioStream22asNonInterleavedStreamEPS0_
libias-audio-smartx.so.4:_ZN8IasAudio20IasSimpleAudioStream23writeFromNonInterleavedERKSt6vectorIPfSaIS2_EE
libias-audio-smartx.so.4:_ZN8IasAudio20IasSimpleAudioStream7cleanupEv
libias-audio-smartx.so.4:_ZN8IasAudio20IasSimpleAudioStreamC1Ev
libias-audio-smartx.so.4:_ZN8IasAudio20IasSimpleAudioStreamC2Ev
libias-audio-smartx.so.4:_ZN8IasAudio20IasSimpleAudioStreamD0Ev
libias-audio-smartx.so.4:_ZN8IasAudio20IasSimpleAudioStreamD1Ev
libias-audio-smartx.so.4:_ZN8IasAudio20IasSimpleAudioStreamD2Ev
libias-audio-smartx.so.4:_ZN8IasAudio21IasAudioChannelBundle15reserveChannelsEjPj
libias-audio-smartx.so.4:_ZN8IasAudio21IasAudioChannelBundle31writeTwoChannelsFromInterleavedEjjPKf
libias-audio-smartx.so.4:_ZN8IasAudio21IasAudioChannelBundle32writeFourChannelsFromInterleavedEjPKf
libias-audio-smartx.so.4:_ZN8IasAudio21IasAudioChannelBundle33writeOneChannelFromNonInterleavedEjPKf
libias-audio-smartx.so.4:_ZN8IasAudio21IasAudioChannelBundle33writeThreeChannelsFromInterleavedEjjPKf
libias-audio-smartx.so.4:_ZN8IasAudio21IasAudioChannelBundle34writeTwoChannelsFromNonInterleavedEjPKfS2_
libias-audio-smartx.so.4:_ZN8IasAudio21IasAudioChannelBundle35writeFourChannelsFromNonInterleavedEPKfS2_S2_S2_
libias-audio-smartx.so.4:_ZN8IasAudio21IasAudioChannelBundle36writeThreeChannelsFromNonInterleavedEjPKfS2_S2_
libias-audio-smartx.so.4:_ZN8IasAudio21IasAudioChannelBundle4initEv
libias-audio-smartx.so.4:_ZN8IasAudio21IasAudioChannelBundle5clearEv
libias-audio-smartx.so.4:_ZN8IasAudio21IasAudioChannelBundle5resetEv
libias-audio-smartx.so.4:_ZN8IasAudio21IasAudioChannelBundleC1Ej
libias-audio-smartx.so.4:_ZN8IasAudio21IasAudioChannelBundleC2Ej
libias-audio-smartx.so.4:_ZN8IasAudio21IasAudioChannelBundleD0Ev
libias-audio-smartx.so.4:_ZN8IasAudio21IasAudioChannelBundleD1Ev
libias-audio-smartx.so.4:_ZN8IasAudio21IasAudioChannelBundleD2Ev
libias-audio-smartx.so.4:_ZN8IasAudio21IasBundledAudioStream13getAudioFrameEPSt6vectorIPfSaIS2_EE
libias-audio-smartx.so.4:_ZN8IasAudio21IasBundledAudioStream15asBundledStreamEPS0_
libias-audio-smartx.so.4:_ZN8IasAudio21IasBundledAudioStream19asInterleavedStreamEPNS_20IasSimpleAudioStreamE
libias-audio-smartx.so.4:_ZN8IasAudio21IasBundledAudioStream20writeFromInterleavedERKSt6vectorIPfSaIS2_EE
libias-audio-smartx.so.4:_ZN8IasAudio21IasBundledAudioStream22asNonInterleavedStreamEPNS_20IasSimpleAudioStreamE
libias-audio-smartx.so.4:_ZN8IasAudio21IasBundledAudioStream23writeFromNonInterleavedERKSt6vectorIPfSaIS2_EE
libias-audio-smartx.so.4:_ZN8IasAudio21IasBundledAudioStream4initEPNS_18IasBundleSequencerESt10shared_ptrINS_24IasAudioChainEnvironmentEE
libias-audio-smartx.so.4:_ZN8IasAudio21IasBundledAudioStreamC1ERKNSt7__cxx1112basic_stringIcSt11char_traitsIcESaIcEEEijNS_18IasBaseAudioStream19IasAudioStreamTypesEb
libias-audio-smartx.so.4:_ZN8IasAudio21IasBundledAudioStreamC2ERKNSt7__cxx1112basic_stringIcSt11char_traitsIcESaIcEEEijNS_18IasBaseAudioStream19IasAudioStreamTypesEb
libias-audio-smartx.so.4:_ZN8IasAudio21IasBundledAudioStreamD0Ev
libias-audio-smartx.so.4:_ZN8IasAudio21IasBundledAudioStreamD1Ev
libias-audio-smartx.so.4:_ZN8IasAudio21IasBundledAudioStreamD2Ev
libias-audio-smartx.so.4:_ZN8IasAudio22IasDebugMutexDecorator11startInjectERKNSt7__cxx1112basic_stringIcSt11char_traitsIcESaIcEEES8_j
libias-audio-smartx.so.4:_ZN8IasAudio22IasDebugMutexDecorator11startRecordERKNSt7__cxx1112basic_stringIcSt11char_traitsIcESaIcEEES8_j
libias-audio-smartx.so.4:_ZN8IasAudio22IasDebugMutexDecorator11stopProbingERKNSt7__cxx1112basic_stringIcSt11char_traitsIcESaIcEEE
libias-audio-smartx.so.4:_ZN8IasAudio22IasDebugMutexDecoratorC1EPNS_9IasIDebugE
libias-audio-smartx.so.4:_ZN8IasAudio22IasDebugMutexDecoratorC2EPNS_9IasIDebugE
libias-audio-smartx.so.4:_ZN8IasAudio22IasDebugMutexDecoratorD0Ev
libias-audio-smartx.so.4:_ZN8IasAudio22IasDebugMutexDecoratorD1Ev
libias-audio-smartx.so.4:_ZN8IasAudio22IasDebugMutexDecoratorD2Ev
libias-audio-smartx.so.4:_ZN8IasAudio22IasDiagnosticLogWriter16isThreadFinishedEv
libias-audio-smartx.so.4:_ZN8IasAudio22IasDiagnosticLogWriter19setConfigParametersEjj
libias-audio-smartx.so.4:_ZN8IasAudio22IasDiagnosticLogWriter7addFileERKNSt7__cxx1112basic_stringIcSt11char_traitsIcESaIcEEE
libias-audio-smartx.so.4:_ZN8IasAudio22IasDiagnosticLogWriter7logFileEv
libias-audio-smartx.so.4:_ZN8IasAudio22IasDiagnosticLogWriterC1Ev
libias-audio-smartx.so.4:_ZN8IasAudio22IasDiagnosticLogWriterC2Ev
libias-audio-smartx.so.4:_ZN8IasAudio22IasDiagnosticLogWriterD0Ev
libias-audio-smartx.so.4:_ZN8IasAudio22IasDiagnosticLogWriterD1Ev
libias-audio-smartx.so.4:_ZN8IasAudio22IasDiagnosticLogWriterD2Ev
libias-audio-smartx.so.4:_ZN8IasAudio22IasSetupMutexDecorator11addPipelineESt10shared_ptrINS_14IasRoutingZoneEES1_INS_11IasPipelineEE
libias-audio-smartx.so.4:_ZN8IasAudio22IasSetupMutexDecorator11getPipelineERKNSt7__cxx1112basic_stringIcSt11char_traitsIcESaIcEEE
libias-audio-smartx.so.4:_ZN8IasAudio22IasSetupMutexDecorator13getPropertiesESt10shared_ptrINS_19IasProcessingModuleEE
libias-audio-smartx.so.4:_ZN8IasAudio22IasSetupMutexDecorator13setPropertiesESt10shared_ptrINS_19IasProcessingModuleEERKNS_13IasPropertiesE
libias-audio-smartx.so.4:_ZN8IasAudio22IasSetupMutexDecorator14addDerivedZoneESt10shared_ptrINS_14IasRoutingZoneEES3_
libias-audio-smartx.so.4:_ZN8IasAudio22IasSetupMutexDecorator14addSourceGroupERKNSt7__cxx1112basic_stringIcSt11char_traitsIcESaIcEEEi
libias-audio-smartx.so.4:_ZN8IasAudio22IasSetupMutexDecorator14createAudioPinERKNS_17IasAudioPinParamsEPSt10shared_ptrINS_11IasAudioPinEE
libias-audio-smartx.so.4:_ZN8IasAudio22IasSetupMutexDecorator14createPipelineERKNS_17IasPipelineParamsEPSt10shared_ptrINS_11IasPipelineEE
libias-audio-smartx.so.4:_ZN8IasAudio22IasSetupMutexDecorator14deletePipelineESt10shared_ptrINS_14IasRoutingZoneEE
libias-audio-smartx.so.4:_ZN8IasAudio22IasSetupMutexDecorator14getRoutingZoneERKNSt7__cxx1112basic_stringIcSt11char_traitsIcESaIcEEE
libias-audio-smartx.so.4:_ZN8IasAudio22IasSetupMutexDecorator15createAudioPortERKNS_18IasAudioPortParamsEPSt10shared_ptrINS_12IasAudioPortEE
libias-audio-smartx.so.4:_ZN8IasAudio22IasSetupMutexDecorator15destroyAudioPinEPSt10shared_ptrINS_11IasAudioPinEE
libias-audio-smartx.so.4:_ZN8IasAudio22IasSetupMutexDecorator15destroyPipelineEPSt10shared_ptrINS_11IasPipelineEE
libias-audio-smartx.so.4:_ZN8IasAudio22IasSetupMutexDecorator15getSourceGroupsB5cxx11Ev
libias-audio-smartx.so.4:_ZN8IasAudio22IasSetupMutexDecorator15stopRoutingZoneESt10shared_ptrINS_14IasRoutingZoneEE
libias-audio-smartx.so.4:_ZN8IasAudio22IasSetupMutexDecorator16addAudioInOutPinESt10shared_ptrINS_19IasProcessingModuleEES1_INS_11IasAudioPinEE
libias-audio-smartx.so.4:_ZN8IasAudio22IasSetupMutexDecorator16addAudioInputPinESt10shared_ptrINS_11IasPipelineEES1_INS_11IasAudioPinEE
libias-audio-smartx.so.4:_ZN8IasAudio22IasSetupMutexDecorator16destroyAudioPortESt10shared_ptrINS_12IasAudioPortEE
libias-audio-smartx.so.4:_ZN8IasAudio22IasSetupMutexDecorator16startRoutingZoneESt10shared_ptrINS_14IasRoutingZoneEE
libias-audio-smartx.so.4:_ZN8IasAudio22IasSetupMutexDecorator17addAudioInputPortESt10shared_ptrINS_14IasRoutingZoneEES1_INS_12IasAudioPortEE
libias-audio-smartx.so.4:_ZN8IasAudio22IasSetupMutexDecorator17addAudioInputPortESt10shared_ptrINS_18IasAudioSinkDeviceEES1_INS_12IasAudioPortEE
libias-audio-smartx.so.4:_ZN8IasAudio22IasSetupMutexDecorator17addAudioOutputPinESt10shared_ptrINS_11IasPipelineEES1_INS_11IasAudioPinEE
libias-audio-smartx.so.4:_ZN8IasAudio22IasSetupMutexDecorator17createRoutingZoneERKNS_20IasRoutingZoneParamsEPSt10shared_ptrINS_14IasRoutingZoneEE
libias-audio-smartx.so.4:_ZN8IasAudio22IasSetupMutexDecorator17deleteDerivedZoneESt10shared_ptrINS_14IasRoutingZoneEES3_
libias-audio-smartx.so.4:_ZN8IasAudio22IasSetupMutexDecorator18addAudioOutputPortESt10shared_ptrINS_20IasAudioSourceDeviceEES1_INS_12IasAudioPortEE
libias-audio-smartx.so.4:_ZN8IasAudio22IasSetupMutexDecorator18addAudioPinMappingESt10shared_ptrINS_19IasProcessingModuleEES1_INS_11IasAudioPinEES5_
libias-audio-smartx.so.4:_ZN8IasAudio22IasSetupMutexDecorator18destroyRoutingZoneESt10shared_ptrINS_14IasRoutingZoneEE
libias-audio-smartx.so.4:_ZN8IasAudio22IasSetupMutexDecorator18getAudioSinkDeviceERKNSt7__cxx1112basic_stringIcSt11char_traitsIcESaIcEEE
libias-audio-smartx.so.4:_ZN8IasAudio22IasSetupMutexDecorator19addProcessingModuleESt10shared_ptrINS_11IasPipelineEES1_INS_19IasProcessingModuleEE
libias-audio-smartx.so.4:_ZN8IasAudio22IasSetupMutexDecorator19deleteAudioInOutPinESt10shared_ptrINS_19IasProcessingModuleEES1_INS_11IasAudioPinEE
libias-audio-smartx.so.4:_ZN8IasAudio22IasSetupMutexDecorator19deleteAudioInputPinESt10shared_ptrINS_11IasPipelineEES1_INS_11IasAudioPinEE
libias-audio-smartx.so.4:_ZN8IasAudio22IasSetupMutexDecorator20deleteAudioInputPortESt10shared_ptrINS_14IasRoutingZoneEES1_INS_12IasAudioPortEE
libias-audio-smartx.so.4:_ZN8IasAudio22IasSetupMutexDecorator20deleteAudioInputPortESt10shared_ptrINS_18IasAudioSinkDeviceEES1_INS_12IasAudioPortEE
libias-audio-smartx.so.4:_ZN8IasAudio22IasSetupMutexDecorator20deleteAudioOutputPinESt10shared_ptrINS_11IasPipelineEES1_INS_11IasAudioPinEE
libias-audio-smartx.so.4:_ZN8IasAudio22IasSetupMutexDecorator20getAudioSourceDeviceERKNSt7__cxx1112basic_stringIcSt11char_traitsIcESaIcEEE
libias-audio-smartx.so.4:_ZN8IasAudio22IasSetupMutexDecorator21createAudioSinkDeviceERKNS_20IasAudioDeviceParamsEPSt10shared_ptrINS_18IasAudioSinkDeviceEE
libias-audio-smartx.so.4:_ZN8IasAudio22IasSetupMutexDecorator21deleteAudioOutputPortESt10shared_ptrINS_20IasAudioSourceDeviceEES1_INS_12IasAudioPortEE
libias-audio-smartx.so.4:_ZN8IasAudio22IasSetupMutexDecorator21deleteAudioPinMappingESt10shared_ptrINS_19IasProcessingModuleEES1_INS_11IasAudioPinEES5_
libias-audio-smartx.so.4:_ZN8IasAudio22IasSetupMutexDecorator21stopAudioSourceDeviceESt10shared_ptrINS_20IasAudioSourceDeviceEE
libias-audio-smartx.so.4:_ZN8IasAudio22IasSetupMutexDecorator22createProcessingModuleERKNS_25IasProcessingModuleParamsEPSt10shared_ptrINS_19IasProcessingModuleEE
libias-audio-smartx.so.4:_ZN8IasAudio22IasSetupMutexDecorator22deleteProcessingModuleESt10shared_ptrINS_11IasPipelineEES1_INS_19IasProcessingModuleEE
libias-audio-smartx.so.4:_ZN8IasAudio22IasSetupMutexDecorator22destroyAudioSinkDeviceESt10shared_ptrINS_18IasAudioSinkDeviceEE
libias-audio-smartx.so.4:_ZN8IasAudio22IasSetupMutexDecorator22initPipelineAudioChainESt10shared_ptrINS_11IasPipelineEE
libias-audio-smartx.so.4:_ZN8IasAudio22IasSetupMutexDecorator22startAudioSourceDeviceESt10shared_ptrINS_20IasAudioSourceDeviceEE
libias-audio-smartx.so.4:_ZN8IasAudio22IasSetupMutexDecorator23createAudioSourceDeviceERKNS_20IasAudioDeviceParamsEPSt10shared_ptrINS_20IasAudioSourceDeviceEE
libias-audio-smartx.so.4:_ZN8IasAudio22IasSetupMutexDecorator23destroyProcessingModuleEPSt10shared_ptrINS_19IasProcessingModuleEE
libias-audio-smartx.so.4:_ZN8IasAudio22IasSetupMutexDecorator24destroyAudioSourceDeviceESt10shared_ptrINS_20IasAudioSourceDeviceEE
libias-audio-smartx.so.4:_ZN8IasAudio22IasSetupMutexDecorator4linkESt10shared_ptrINS_11IasAudioPinEES3_NS_19IasAudioPinLinkTypeE
libias-audio-smartx.so.4:_ZN8IasAudio22IasSetupMutexDecorator4linkESt10shared_ptrINS_12IasAudioPortEES1_INS_11IasAudioPinEE
libias-audio-smartx.so.4:_ZN8IasAudio22IasSetupMutexDecorator4linkESt10shared_ptrINS_12IasAudioPortEES3_
libias-audio-smartx.so.4:_ZN8IasAudio22IasSetupMutexDecorator4linkESt10shared_ptrINS_14IasRoutingZoneEES1_INS_18IasAudioSinkDeviceEE
libias-audio-smartx.so.4:_ZN8IasAudio22IasSetupMutexDecorator6unlinkESt10shared_ptrINS_11IasAudioPinEES3_
libias-audio-smartx.so.4:_ZN8IasAudio22IasSetupMutexDecorator6unlinkESt10shared_ptrINS_12IasAudioPortEES1_INS_11IasAudioPinEE
libias-audio-smartx.so.4:_ZN8IasAudio22IasSetupMutexDecorator6unlinkESt10shared_ptrINS_12IasAudioPortEES3_
libias-audio-smartx.so.4:_ZN8IasAudio22IasSetupMutexDecorator6unlinkESt10shared_ptrINS_14IasRoutingZoneEES1_INS_18IasAudioSinkDeviceEE
libias-audio-smartx.so.4:_ZN8IasAudio22IasSetupMutexDecoratorC1EPNS_9IasISetupE
libias-audio-smartx.so.4:_ZN8IasAudio22IasSetupMutexDecoratorC2EPNS_9IasISetupE
libias-audio-smartx.so.4:_ZN8IasAudio22IasSetupMutexDecoratorD0Ev
libias-audio-smartx.so.4:_ZN8IasAudio22IasSetupMutexDecoratorD1Ev
libias-audio-smartx.so.4:_ZN8IasAudio22IasSetupMutexDecoratorD2Ev
libias-audio-smartx.so.4:_ZN8IasAudio23IasGenericAudioCompCore10startProbeERKNSt7__cxx1112basic_stringIcSt11char_traitsIcESaIcEEEbjjbb
libias-audio-smartx.so.4:_ZN8IasAudio23IasGenericAudioCompCore16enableProcessingEv
libias-audio-smartx.so.4:_ZN8IasAudio23IasGenericAudioCompCore16setupProbingInfoEPNS_14IasAudioStreamEPNS_12IasAudioAreaE
libias-audio-smartx.so.4:_ZN8IasAudio23IasGenericAudioCompCore17disableProcessingEv
libias-audio-smartx.so.4:_ZN8IasAudio23IasGenericAudioCompCore4initESt10shared_ptrINS_24IasAudioChainEnvironmentEE
libias-audio-smartx.so.4:_ZN8IasAudio23IasGenericAudioCompCore7processEv
libias-audio-smartx.so.4:_ZN8IasAudio23IasGenericAudioCompCore9stopProbeEibb
libias-audio-smartx.so.4:_ZN8IasAudio23IasGenericAudioCompCoreC1EPKNS_26IasIGenericAudioCompConfigERKNSt7__cxx1112basic_stringIcSt11char_traitsIcESaIcEEE
libias-audio-smartx.so.4:_ZN8IasAudio23IasGenericAudioCompCoreC2EPKNS_26IasIGenericAudioCompConfigERKNSt7__cxx1112basic_stringIcSt11char_traitsIcESaIcEEE
libias-audio-smartx.so.4:_ZN8IasAudio23IasGenericAudioCompCoreD0Ev
libias-audio-smartx.so.4:_ZN8IasAudio23IasGenericAudioCompCoreD1Ev
libias-audio-smartx.so.4:_ZN8IasAudio23IasGenericAudioCompCoreD2Ev
libias-audio-smartx.so.4:_ZN8IasAudio24IasAudioChainEnvironment13getSampleRateEv
libias-audio-smartx.so.4:_ZN8IasAudio24IasAudioChainEnvironment13setSampleRateEj
libias-audio-smartx.so.4:_ZN8IasAudio24IasAudioChainEnvironment14getFrameLengthEv
libias-audio-smartx.so.4:_ZN8IasAudio24IasAudioChainEnvironment14setFrameLengthEj
libias-audio-smartx.so.4:_ZN8IasAudio24IasAudioChainEnvironmentC1Ev
libias-audio-smartx.so.4:_ZN8IasAudio24IasAudioChainEnvironmentC2Ev
libias-audio-smartx.so.4:_ZN8IasAudio24IasAudioChainEnvironmentD0Ev
libias-audio-smartx.so.4:_ZN8IasAudio24IasAudioChainEnvironmentD1Ev
libias-audio-smartx.so.4:_ZN8IasAudio24IasAudioChainEnvironmentD2Ev
libias-audio-smartx.so.4:_ZN8IasAudio24IasRoutingMutexDecorator10disconnectEii
libias-audio-smartx.so.4:_ZN8IasAudio24IasRoutingMutexDecorator7connectEii
libias-audio-smartx.so.4:_ZN8IasAudio24IasRoutingMutexDecoratorC1EPNS_11IasIRoutingE
libias-audio-smartx.so.4:_ZN8IasAudio24IasRoutingMutexDecoratorC2EPNS_11IasIRoutingE
libias-audio-smartx.so.4:_ZN8IasAudio24IasRoutingMutexDecoratorD0Ev
libias-audio-smartx.so.4:_ZN8IasAudio24IasRoutingMutexDecoratorD1Ev
libias-audio-smartx.so.4:_ZN8IasAudio24IasRoutingMutexDecoratorD2Ev
libias-audio-smartx.so.4:_ZN8IasAudio25IasAudioBufferPoolHandler11getInstanceEv
libias-audio-smartx.so.4:_ZN8IasAudio25IasAudioBufferPoolHandler13getBufferPoolEj
libias-audio-smartx.so.4:_ZN8IasAudio25IasAudioBufferPoolHandlerC1Ev
libias-audio-smartx.so.4:_ZN8IasAudio25IasAudioBufferPoolHandlerC2Ev
libias-audio-smartx.so.4:_ZN8IasAudio25IasAudioBufferPoolHandlerD0Ev
libias-audio-smartx.so.4:_ZN8IasAudio25IasAudioBufferPoolHandlerD1Ev
libias-audio-smartx.so.4:_ZN8IasAudio25IasAudioBufferPoolHandlerD2Ev
libias-audio-smartx.so.4:_ZN8IasAudio25IasGenericAudioCompConfig16addStreamMappingEPNS_14IasAudioStreamERKNSt7__cxx1112basic_stringIcSt11char_traitsIcESaIcEEES2_SA_
libias-audio-smartx.so.4:_ZN8IasAudio25IasGenericAudioCompConfig18addStreamToProcessEPNS_14IasAudioStreamERKNSt7__cxx1112basic_stringIcSt11char_traitsIcESaIcEEE
libias-audio-smartx.so.4:_ZN8IasAudio25IasGenericAudioCompConfigC1Ev
libias-audio-smartx.so.4:_ZN8IasAudio25IasGenericAudioCompConfigC2Ev
libias-audio-smartx.so.4:_ZN8IasAudio25IasGenericAudioCompConfigD0Ev
libias-audio-smartx.so.4:_ZN8IasAudio25IasGenericAudioCompConfigD1Ev
libias-audio-smartx.so.4:_ZN8IasAudio25IasGenericAudioCompConfigD2Ev
libias-audio-smartx.so.4:_ZN8IasAudio26IasAlsaHandlerWorkerThread14transferFramesEPKNS_12IasAudioAreaEjjS3_jjNS_24IasAudioCommonDataFormatEjfNS_13IasDeviceTypeEPjS6_
libias-audio-smartx.so.4:_ZN8IasAudio26IasAlsaHandlerWorkerThread18bufferAdjustFramesEPNS_18IasAudioRingBufferENS_19IasRingBufferAccessENS_24IasAudioCommonDataFormatEjj
libias-audio-smartx.so.4:_ZN8IasAudio26IasAlsaHandlerWorkerThread3runEv
libias-audio-smartx.so.4:_ZN8IasAudio26IasAlsaHandlerWorkerThread4initENS_13IasDeviceTypeE
libias-audio-smartx.so.4:_ZN8IasAudio26IasAlsaHandlerWorkerThread4stopEv
libias-audio-smartx.so.4:_ZN8IasAudio26IasAlsaHandlerWorkerThread5resetEv
libias-audio-smartx.so.4:_ZN8IasAudio26IasAlsaHandlerWorkerThread5startEv
libias-audio-smartx.so.4:_ZN8IasAudio26IasAlsaHandlerWorkerThread8afterRunEv
libias-audio-smartx.so.4:_ZN8IasAudio26IasAlsaHandlerWorkerThread8shutDownEv
libias-audio-smartx.so.4:_ZN8IasAudio26IasAlsaHandlerWorkerThread9beforeRunEv
libias-audio-smartx.so.4:_ZN8IasAudio26IasAlsaHandlerWorkerThreadC1ESt10shared_ptrINS0_32IasAlsaHandlerWorkerThreadParamsEE
libias-audio-smartx.so.4:_ZN8IasAudio26IasAlsaHandlerWorkerThreadC2ESt10shared_ptrINS0_32IasAlsaHandlerWorkerThreadParamsEE
libias-audio-smartx.so.4:_ZN8IasAudio26IasAlsaHandlerWorkerThreadD0Ev
libias-audio-smartx.so.4:_ZN8IasAudio26IasAlsaHandlerWorkerThreadD1Ev
libias-audio-smartx.so.4:_ZN8IasAudio26IasAlsaHandlerWorkerThreadD2Ev
libias-audio-smartx.so.4:_ZN8IasAudio26IasRoutingZoneWorkerThread11addPipelineESt10shared_ptrINS_11IasPipelineEE
libias-audio-smartx.so.4:_ZN8IasAudio26IasRoutingZoneWorkerThread11changeStateENS0_9IasActionEb
libias-audio-smartx.so.4:_ZN8IasAudio26IasRoutingZoneWorkerThread11stopProbingEv
libias-audio-smartx.so.4:_ZN8IasAudio26IasRoutingZoneWorkerThread12startProbingERKNSt7__cxx1112basic_stringIcSt11char_traitsIcESaIcEEEbjjj
libias-audio-smartx.so.4:_ZN8IasAudio26IasRoutingZoneWorkerThread13prepareStatesEv
libias-audio-smartx.so.4:_ZN8IasAudio26IasRoutingZoneWorkerThread14deletePipelineEv
libias-audio-smartx.so.4:_ZN8IasAudio26IasRoutingZoneWorkerThread14linkAudioPortsESt10shared_ptrINS_12IasAudioPortEES3_
libias-audio-smartx.so.4:_ZN8IasAudio26IasRoutingZoneWorkerThread14transferPeriodEv
libias-audio-smartx.so.4:_ZN8IasAudio26IasRoutingZoneWorkerThread15addBasePipelineESt10shared_ptrINS_11IasPipelineEE
libias-audio-smartx.so.4:_ZN8IasAudio26IasRoutingZoneWorkerThread16unlinkAudioPortsESt10shared_ptrINS_12IasAudioPortEES3_
libias-audio-smartx.so.4:_ZN8IasAudio26IasRoutingZoneWorkerThread17getLinkedSinkPortESt10shared_ptrINS_12IasAudioPortEEPS3_
libias-audio-smartx.so.4:_ZN8IasAudio26IasRoutingZoneWorkerThread17prefillSinkBufferEv
libias-audio-smartx.so.4:_ZN8IasAudio26IasRoutingZoneWorkerThread18deleteBasePipelineEv
libias-audio-smartx.so.4:_ZN8IasAudio26IasRoutingZoneWorkerThread19addConversionBufferESt10shared_ptrINS_12IasAudioPortEEPNS_18IasAudioRingBufferE
libias-audio-smartx.so.4:_ZN8IasAudio26IasRoutingZoneWorkerThread19getConversionBufferESt10shared_ptrINS_12IasAudioPortEE
libias-audio-smartx.so.4:_ZN8IasAudio26IasRoutingZoneWorkerThread19linkAudioSinkDeviceESt10shared_ptrINS_18IasAudioSinkDeviceEE
libias-audio-smartx.so.4:_ZN8IasAudio26IasRoutingZoneWorkerThread21activatePendingWorkerEv
libias-audio-smartx.so.4:_ZN8IasAudio26IasRoutingZoneWorkerThread21unlinkAudioSinkDeviceEv
libias-audio-smartx.so.4:_ZN8IasAudio26IasRoutingZoneWorkerThread22clearConversionBuffersEv
libias-audio-smartx.so.4:_ZN8IasAudio26IasRoutingZoneWorkerThread22deleteConversionBufferESt10shared_ptrINS_12IasAudioPortEE
libias-audio-smartx.so.4:_ZN8IasAudio26IasRoutingZoneWorkerThread26addDerivedZoneWorkerThreadESt10shared_ptrIS0_E
libias-audio-smartx.so.4:_ZN8IasAudio26IasRoutingZoneWorkerThread29deleteDerivedZoneWorkerThreadESt10shared_ptrIS0_E
libias-audio-smartx.so.4:_ZN8IasAudio26IasRoutingZoneWorkerThread3runEv
libias-audio-smartx.so.4:_ZN8IasAudio26IasRoutingZoneWorkerThread4initEv
libias-audio-smartx.so.4:_ZN8IasAudio26IasRoutingZoneWorkerThread4stopEv
libias-audio-smartx.so.4:_ZN8IasAudio26IasRoutingZoneWorkerThread5startEv
libias-audio-smartx.so.4:_ZN8IasAudio26IasRoutingZoneWorkerThread8afterRunEv
libias-audio-smartx.so.4:_ZN8IasAudio26IasRoutingZoneWorkerThread8shutDownEv
libias-audio-smartx.so.4:_ZN8IasAudio26IasRoutingZoneWorkerThread9beforeRunEv
libias-audio-smartx.so.4:_ZN8IasAudio26IasRoutingZoneWorkerThreadC1ESt10shared_ptrINS_20IasRoutingZoneParamsEE
libias-audio-smartx.so.4:_ZN8IasAudio26IasRoutingZoneWorkerThreadC2ESt10shared_ptrINS_20IasRoutingZoneParamsEE
libias-audio-smartx.so.4:_ZN8IasAudio26IasRoutingZoneWorkerThreadD0Ev
libias-audio-smartx.so.4:_ZN8IasAudio26IasRoutingZoneWorkerThreadD1Ev
libias-audio-smartx.so.4:_ZN8IasAudio26IasRoutingZoneWorkerThreadD2Ev
libias-audio-smartx.so.4:_ZN8IasAudio27IasProcessingMutexDecorator7sendCmdERKNSt7__cxx1112basic_stringIcSt11char_traitsIcESaIcEEERKNS_13IasPropertiesERS9_
libias-audio-smartx.so.4:_ZN8IasAudio27IasProcessingMutexDecoratorC1EPNS_14IasIProcessingE
libias-audio-smartx.so.4:_ZN8IasAudio27IasProcessingMutexDecoratorC2EPNS_14IasIProcessingE
libias-audio-smartx.so.4:_ZN8IasAudio27IasProcessingMutexDecoratorD0Ev
libias-audio-smartx.so.4:_ZN8IasAudio27IasProcessingMutexDecoratorD1Ev
libias-audio-smartx.so.4:_ZN8IasAudio27IasProcessingMutexDecoratorD2Ev
libias-audio-smartx.so.4:_ZN8IasAudio8IasEventC1Ev
libias-audio-smartx.so.4:_ZN8IasAudio8IasEventC2Ev
libias-audio-smartx.so.4:_ZN8IasAudio8IasEventD0Ev
libias-audio-smartx.so.4:_ZN8IasAudio8IasEventD1Ev
libias-audio-smartx.so.4:_ZN8IasAudio8IasEventD2Ev
libias-audio-smartx.so.4:_ZN8IasAudio8toStringB5cxx11ERKNS_11IasAudioPin15IasPinDirectionE
libias-audio-smartx.so.4:_ZN8IasAudio8toStringB5cxx11ERKNS_11IasAudioPin9IasResultE
libias-audio-smartx.so.4:_ZN8IasAudio8toStringB5cxx11ERKNS_11IasIRouting9IasResultE
libias-audio-smartx.so.4:_ZN8IasAudio8toStringB5cxx11ERKNS_11IasPipeline9IasResultE
libias-audio-smartx.so.4:_ZN8IasAudio8toStringB5cxx11ERKNS_13IasAudioChain9IasResultE
libias-audio-smartx.so.4:_ZN8IasAudio8toStringB5cxx11ERKNS_13IasProperties9IasResultE
libias-audio-smartx.so.4:_ZN8IasAudio8toStringB5cxx11ERKNS_13IasRampShapesE
libias-audio-smartx.so.4:_ZN8IasAudio8toStringB5cxx11ERKNS_13IasSetupEvent12IasEventTypeE
libias-audio-smartx.so.4:_ZN8IasAudio8toStringB5cxx11ERKNS_13IasSmartXPriv9IasResultE
libias-audio-smartx.so.4:_ZN8IasAudio8toStringB5cxx11ERKNS_14IasAlsaHandler9IasResultE
libias-audio-smartx.so.4:_ZN8IasAudio8toStringB5cxx11ERKNS_14IasAudioDevice12IasEventTypeE
libias-audio-smartx.so.4:_ZN8IasAudio8toStringB5cxx11ERKNS_14IasIProcessing9IasResultE
libias-audio-smartx.so.4:_ZN8IasAudio8toStringB5cxx11ERKNS_14IasRoutingZone9IasResultE
libias-audio-smartx.so.4:_ZN8IasAudio8toStringB5cxx11ERKNS_15IasRunnerThread9IasResultE
libias-audio-smartx.so.4:_ZN8IasAudio8toStringB5cxx11ERKNS_15IasSmartXClient9IasResultE
libias-audio-smartx.so.4:_ZN8IasAudio8toStringB5cxx11ERKNS_16IasConfiguration9IasResultE
libias-audio-smartx.so.4:_ZN8IasAudio8toStringB5cxx11ERKNS_18IasConnectionEvent12IasEventTypeE
libias-audio-smartx.so.4:_ZN8IasAudio8toStringB5cxx11ERKNS_19IasAudioFilterTypesE
libias-audio-smartx.so.4:_ZN8IasAudio8toStringB5cxx11ERKNS_19IasProcessingModule9IasResultE
libias-audio-smartx.so.4:_ZN8IasAudio8toStringB5cxx11ERKNS_26IasAlsaHandlerWorkerThread9IasResultE
libias-audio-smartx.so.4:_ZN8IasAudio8toStringB5cxx11ERKNS_26IasRoutingZoneWorkerThread17IasStreamingStateE
libias-audio-smartx.so.4:_ZN8IasAudio8toStringB5cxx11ERKNS_26IasRoutingZoneWorkerThread9IasResultE
libias-audio-smartx.so.4:_ZN8IasAudio8toStringB5cxx11ERKNS_9IasISetup9IasResultE
libias-audio-smartx.so.4:_ZN8IasAudio8toStringB5cxx11ERKNS_9IasSmartX9IasResultE
libias-audio-smartx.so.4:_ZN8IasAudio9IasSmartX10getVersionB5cxx11Ev
libias-audio-smartx.so.4:_ZN8IasAudio9IasSmartX10hasFeatureERKNSt7__cxx1112basic_stringIcSt11char_traitsIcESaIcEEE
libias-audio-smartx.so.4:_ZN8IasAudio9IasSmartX10processingEv
libias-audio-smartx.so.4:_ZN8IasAudio9IasSmartX12getNextEventEPSt10shared_ptrINS_8IasEventEE
libias-audio-smartx.so.4:_ZN8IasAudio9IasSmartX4initEv
libias-audio-smartx.so.4:_ZN8IasAudio9IasSmartX4stopEv
libias-audio-smartx.so.4:_ZN8IasAudio9IasSmartX5debugEv
libias-audio-smartx.so.4:_ZN8IasAudio9IasSmartX5setupEv
libias-audio-smartx.so.4:_ZN8IasAudio9IasSmartX5startEv
libias-audio-smartx.so.4:_ZN8IasAudio9IasSmartX6createEv
libias-audio-smartx.so.4:_ZN8IasAudio9IasSmartX7destroyEPS0_
libias-audio-smartx.so.4:_ZN8IasAudio9IasSmartX7routingEv
libias-audio-smartx.so.4:_ZN8IasAudio9IasSmartX8getMajorEv
libias-audio-smartx.so.4:_ZN8IasAudio9IasSmartX8getMinorEv
libias-audio-smartx.so.4:_ZN8IasAudio9IasSmartX8getPatchEv
libias-audio-smartx.so.4:_ZN8IasAudio9IasSmartX9isAtLeastEiii
libias-audio-smartx.so.4:_ZN8IasAudio9IasSmartXC1Ev
libias-audio-smartx.so.4:_ZN8IasAudio9IasSmartXC2Ev
libias-audio-smartx.so.4:_ZN8IasAudio9IasSmartXD1Ev
libias-audio-smartx.so.4:_ZN8IasAudio9IasSmartXD2Ev
libias-audio-smartx.so.4:_ZN8IasAudio9translateENS_12IasAudioPort9IasResultE
libias-audio-smartx.so.4:_ZN8IasAudio9translateENS_12IasIModuleId9IasResultE
libias-audio-smartx.so.4:_ZN8IasAudio9translateENS_14IasAlsaHandler9IasResultE
libias-audio-smartx.so.4:_ZN8IasAudio9translateENS_14IasRoutingZone9IasResultE
libias-audio-smartx.so.4:_ZN8IasAudio9translateENS_15IasSmartXClient9IasResultE
libias-audio-smartx.so.4:_ZN8IasAudio9translateENS_16IasConfiguration9IasResultE
libias-audio-smartx.so.4:_ZN8IasAudio9translateENS_19IasICmdRegistration9IasResultE
libias-audio-smartx.so.4:_ZNK8IasAudio11IasPipeline22dumpProcessingSequenceEv
libias-audio-smartx.so.4:_ZNK8IasAudio11IasPipeline22getPinConnectionParamsESt10shared_ptrINS_11IasAudioPinEE
libias-audio-smartx.so.4:_ZNK8IasAudio11IasPipeline24dumpConnectionParametersEv
libias-audio-smartx.so.4:_ZNK8IasAudio12IasAudioPort13getRingBufferEPPNS_18IasAudioRingBufferE
libias-audio-smartx.so.4:_ZNK8IasAudio12IasAudioPort18getCopyInformationEPNS_27IasAudioPortCopyInformationE
libias-audio-smartx.so.4:_ZNK8IasAudio12IasSetupImpl12getAudioPinsEv
libias-audio-smartx.so.4:_ZNK8IasAudio12IasSetupImpl13getAudioPortsEv
libias-audio-smartx.so.4:_ZNK8IasAudio12IasSetupImpl15getRoutingZonesEv
libias-audio-smartx.so.4:_ZNK8IasAudio12IasSetupImpl18getAudioInputPortsEv
libias-audio-smartx.so.4:_ZNK8IasAudio12IasSetupImpl19getAudioOutputPortsEv
libias-audio-smartx.so.4:_ZNK8IasAudio12IasSetupImpl19getAudioSinkDevicesEv
libias-audio-smartx.so.4:_ZNK8IasAudio12IasSetupImpl21getAudioSourceDevicesEv
libias-audio-smartx.so.4:_ZNK8IasAudio13IasAudioChain15getOutputStreamEi
libias-audio-smartx.so.4:_ZNK8IasAudio13IasAudioChain24clearOutputBundleBuffersEv
libias-audio-smartx.so.4:_ZNK8IasAudio13IasAudioChain7processEv
libias-audio-smartx.so.4:_ZNK8IasAudio13IasBufferTask8isActiveEv
libias-audio-smartx.so.4:_ZNK8IasAudio13IasConfigFile15getShmGroupNameB5cxx11Ev
libias-audio-smartx.so.4:_ZNK8IasAudio13IasConfigFile16getLogPeriodTimeEv
libias-audio-smartx.so.4:_ZNK8IasAudio13IasConfigFile19getNumEntriesPerMsgEv
libias-audio-smartx.so.4:_ZNK8IasAudio13IasConfigFile20getRunnerThreadStateERKNSt7__cxx1112basic_stringIcSt11char_traitsIcESaIcEEE
libias-audio-smartx.so.4:_ZNK8IasAudio13IasConfigFile24getAlsaHandlerDiagParamsERKNSt7__cxx1112basic_stringIcSt11char_traitsIcESaIcEEE
libias-audio-smartx.so.4:_ZNK8IasAudio13IasConfigFile6getKeyERKNSt7__cxx1112basic_stringIcSt11char_traitsIcESaIcEEE
libias-audio-smartx.so.4:_ZNK8IasAudio13IasProperties14getKeyDataTypeENSt7__cxx1112basic_stringIcSt11char_traitsIcESaIcEEERS6_
libias-audio-smartx.so.4:_ZNK8IasAudio13IasProperties3getINSt7__cxx1112basic_stringIcSt11char_traitsIcESaIcEEEEENS0_9IasResultERKS7_PT_
libias-audio-smartx.so.4:_ZNK8IasAudio13IasProperties3getISt6vectorINSt7__cxx1112basic_stringIcSt11char_traitsIcESaIcEEESaIS8_EEEENS0_9IasResultERKS8_PT_
libias-audio-smartx.so.4:_ZNK8IasAudio13IasProperties3getISt6vectorIdSaIdEEEENS0_9IasResultERKNSt7__cxx1112basic_stringIcSt11char_traitsIcESaIcEEEPT_
libias-audio-smartx.so.4:_ZNK8IasAudio13IasProperties3getISt6vectorIfSaIfEEEENS0_9IasResultERKNSt7__cxx1112basic_stringIcSt11char_traitsIcESaIcEEEPT_
libias-audio-smartx.so.4:_ZNK8IasAudio13IasProperties3getISt6vectorIiSaIiEEEENS0_9IasResultERKNSt7__cxx1112basic_stringIcSt11char_traitsIcESaIcEEEPT_
libias-audio-smartx.so.4:_ZNK8IasAudio13IasProperties3getISt6vectorIlSaIlEEEENS0_9IasResultERKNSt7__cxx1112basic_stringIcSt11char_traitsIcESaIcEEEPT_
libias-audio-smartx.so.4:_ZNK8IasAudio13IasProperties3getIdEENS0_9IasResultERKNSt7__cxx1112basic_stringIcSt11char_traitsIcESaIcEEEPT_
libias-audio-smartx.so.4:_ZNK8IasAudio13IasProperties3getIfEENS0_9IasResultERKNSt7__cxx1112basic_stringIcSt11char_traitsIcESaIcEEEPT_
libias-audio-smartx.so.4:_ZNK8IasAudio13IasProperties3getIiEENS0_9IasResultERKNSt7__cxx1112basic_stringIcSt11char_traitsIcESaIcEEEPT_
libias-audio-smartx.so.4:_ZNK8IasAudio13IasProperties3getIlEENS0_9IasResultERKNSt7__cxx1112basic_stringIcSt11char_traitsIcESaIcEEEPT_
libias-audio-smartx.so.4:_ZNK8IasAudio13IasProperties4dumpERKNSt7__cxx1112basic_stringIcSt11char_traitsIcESaIcEEE
libias-audio-smartx.so.4:_ZNK8IasAudio13IasSmartXPriv12waitForEventEj
libias-audio-smartx.so.4:_ZNK8IasAudio14IasAlsaHandler13getPeriodSizeEPj
libias-audio-smartx.so.4:_ZNK8IasAudio14IasAlsaHandler13getRingBufferEPPNS_18IasAudioRingBufferE
libias-audio-smartx.so.4:_ZNK8IasAudio14IasAudioDevice13isAlsaHandlerEv
libias-audio-smartx.so.4:_ZNK8IasAudio14IasAudioDevice14isSmartXClientEv
libias-audio-smartx.so.4:_ZNK8IasAudio14IasAudioDevice15getDeviceParamsEv
libias-audio-smartx.so.4:_ZNK8IasAudio14IasAudioStream15getSampleLayoutEv
libias-audio-smartx.so.4:_ZNK8IasAudio14IasAudioStream6getSidEv
libias-audio-smartx.so.4:_ZNK8IasAudio14IasRoutingImpl15getDummySourcesEv
libias-audio-smartx.so.4:_ZNK8IasAudio14IasRoutingImpl20getActiveConnectionsEv
libias-audio-smartx.so.4:_ZNK8IasAudio14IasRoutingZone11getBaseZoneEv
libias-audio-smartx.so.4:_ZNK8IasAudio14IasRoutingZone11getPipelineEv
libias-audio-smartx.so.4:_ZNK8IasAudio14IasRoutingZone11hasPipelineESt10shared_ptrINS_11IasPipelineEE
libias-audio-smartx.so.4:_ZNK8IasAudio14IasRoutingZone13getPeriodSizeEv
libias-audio-smartx.so.4:_ZNK8IasAudio14IasRoutingZone13getSampleRateEv
libias-audio-smartx.so.4:_ZNK8IasAudio14IasRoutingZone13isDerivedZoneEv
libias-audio-smartx.so.4:_ZNK8IasAudio14IasRoutingZone15getSampleFormatEv
libias-audio-smartx.so.4:_ZNK8IasAudio14IasRoutingZone15isActivePendingEv
libias-audio-smartx.so.4:_ZNK8IasAudio14IasRoutingZone20getRoutingZoneParamsEv
libias-audio-smartx.so.4:_ZNK8IasAudio14IasRoutingZone8isActiveEv
libias-audio-smartx.so.4:_ZNK8IasAudio15IasRunnerThread11isAnyActiveEv
libias-audio-smartx.so.4:_ZNK8IasAudio15IasRunnerThread12isProcessingEv
libias-audio-smartx.so.4:_ZNK8IasAudio15IasRunnerThread21getPeriodSizeMultipleEv
libias-audio-smartx.so.4:_ZNK8IasAudio16IasConfiguration18getNumberPipelinesEv
libias-audio-smartx.so.4:_ZNK8IasAudio16IasConfiguration20getNumberSinkDevicesEv
libias-audio-smartx.so.4:_ZNK8IasAudio16IasConfiguration21getNumberRoutingZonesEv
libias-audio-smartx.so.4:_ZNK8IasAudio16IasConfiguration22getNumberSourceDevicesEv
libias-audio-smartx.so.4:_ZNK8IasAudio16IasPluginLibrary18getModuleTypeNamesB5cxx11Ev
libias-audio-smartx.so.4:_ZNK8IasAudio18IasBundleSequencer21clearAllBundleBuffersEv
libias-audio-smartx.so.4:_ZNK8IasAudio20IasSimpleAudioStream20getAudioDataPointersERSt6vectorIPfSaIS2_EEPj
libias-audio-smartx.so.4:_ZNK8IasAudio20IasSimpleAudioStream25copyToOutputAudioChannelsERKSt6vectorIPfSaIS2_EE
libias-audio-smartx.so.4:_ZNK8IasAudio21IasAudioChannelBundle14readOneChannelEjPf
libias-audio-smartx.so.4:_ZNK8IasAudio21IasAudioChannelBundle15readTwoChannelsEjPfS1_
libias-audio-smartx.so.4:_ZNK8IasAudio21IasAudioChannelBundle16readFourChannelsEPfS1_S1_S1_
libias-audio-smartx.so.4:_ZNK8IasAudio21IasAudioChannelBundle17readThreeChannelsEjPfS1_S1_
libias-audio-smartx.so.4:_ZNK8IasAudio21IasBundledAudioStream20getAudioDataPointersERSt6vectorIPfSaIS2_EEPj
libias-audio-smartx.so.4:_ZNK8IasAudio21IasBundledAudioStream25copyToOutputAudioChannelsERKSt6vectorIPfSaIS2_EE
libias-audio-smartx.so.4:_ZNK8IasAudio21IasBundledAudioStream4readEPf
libias-audio-smartx.so.4:_ZNK8IasAudio21IasBundledAudioStream4readERKSt6vectorIPfSaIS2_EE
libias-audio-smartx.so.4:_ZNK8IasAudio22IasSetupMutexDecorator12getAudioPinsEv
libias-audio-smartx.so.4:_ZNK8IasAudio22IasSetupMutexDecorator13getAudioPortsEv
libias-audio-smartx.so.4:_ZNK8IasAudio22IasSetupMutexDecorator15getRoutingZonesEv
libias-audio-smartx.so.4:_ZNK8IasAudio22IasSetupMutexDecorator18getAudioInputPortsEv
libias-audio-smartx.so.4:_ZNK8IasAudio22IasSetupMutexDecorator19getAudioOutputPortsEv
libias-audio-smartx.so.4:_ZNK8IasAudio22IasSetupMutexDecorator19getAudioSinkDevicesEv
libias-audio-smartx.so.4:_ZNK8IasAudio22IasSetupMutexDecorator21getAudioSourceDevicesEv
libias-audio-smartx.so.4:_ZNK8IasAudio24IasRoutingMutexDecorator15getDummySourcesEv
libias-audio-smartx.so.4:_ZNK8IasAudio24IasRoutingMutexDecorator20getActiveConnectionsEv
libias-audio-smartx.so.4:_ZNK8IasAudio25IasGenericAudioCompConfig10getPinNameEiRNSt7__cxx1112basic_stringIcSt11char_traitsIcESaIcEEE
libias-audio-smartx.so.4:_ZNK8IasAudio25IasGenericAudioCompConfig11getStreamIdERKNSt7__cxx1112basic_stringIcSt11char_traitsIcESaIcEEERi
libias-audio-smartx.so.4:_ZNK8IasAudio25IasGenericAudioCompConfig13getStreamByIdEPPNS_14IasAudioStreamEi
libias-audio-smartx.so.4:_ZNK8IasAudio26IasRoutingZoneWorkerThread11hasPipelineESt10shared_ptrINS_11IasPipelineEE
libias-audio-smartx.so.4:_ZNK8IasAudio26IasRoutingZoneWorkerThread14isSinkServicedEv
libias-audio-smartx.so.4:_ZNK8IasAudio9IasSmartX12waitForEventEj
libias-audio-smartx.so.4:_ZTv0_n120_NK8IasAudio25IasGenericAudioCompConfig11getStreamIdERKNSt7__cxx1112basic_stringIcSt11char_traitsIcESaIcEEERi
libias-audio-smartx.so.4:_ZTv0_n128_NK8IasAudio25IasGenericAudioCompConfig10getPinNameEiRNSt7__cxx1112basic_stringIcSt11char_traitsIcESaIcEEE
libias-audio-smartx.so.4:_ZTv0_n136_NK8IasAudio25IasGenericAudioCompConfig13getStreamByIdEPPNS_14IasAudioStreamEi
libias-audio-smartx.so.4:_ZTv0_n24_N8IasAudio25IasGenericAudioCompConfigD0Ev
libias-audio-smartx.so.4:_ZTv0_n24_N8IasAudio25IasGenericAudioCompConfigD1Ev
libias-audio-smartx.so.4:_ZTv0_n32_N8IasAudio25IasGenericAudioCompConfig18addStreamToProcessEPNS_14IasAudioStreamERKNSt7__cxx1112basic_stringIcSt11char_traitsIcESaIcEEE
libias-audio-smartx.so.4:_ZTv0_n40_N8IasAudio25IasGenericAudioCompConfig16addStreamMappingEPNS_14IasAudioStreamERKNSt7__cxx1112basic_stringIcSt11char_traitsIcESaIcEEES2_SA_
libias-audio-smartx.so.4:debugHook
libias-audio-smartx.so.4:processingHook
libias-audio-smartx.so.4:routingHook
libias-audio-smartx.so.4:setupHook
libias-audio-testfwx.so.4:_ZN8IasAudio16IasTestFramework10processingEv
libias-audio-testfwx.so.4:_ZN8IasAudio16IasTestFramework12getNextEventEPSt10shared_ptrINS_8IasEventEE
libias-audio-testfwx.so.4:_ZN8IasAudio16IasTestFramework4initERKNS_17IasPipelineParamsE
libias-audio-testfwx.so.4:_ZN8IasAudio16IasTestFramework4stopEv
libias-audio-testfwx.so.4:_ZN8IasAudio16IasTestFramework5debugEv
libias-audio-testfwx.so.4:_ZN8IasAudio16IasTestFramework5setupEv
libias-audio-testfwx.so.4:_ZN8IasAudio16IasTestFramework5startEv
libias-audio-testfwx.so.4:_ZN8IasAudio16IasTestFramework6createERKNS_17IasPipelineParamsE
libias-audio-testfwx.so.4:_ZN8IasAudio16IasTestFramework7destroyEPS0_
libias-audio-testfwx.so.4:_ZN8IasAudio16IasTestFramework7processEj
libias-audio-testfwx.so.4:_ZN8IasAudio16IasTestFrameworkC1Ev
libias-audio-testfwx.so.4:_ZN8IasAudio16IasTestFrameworkC2Ev
libias-audio-testfwx.so.4:_ZN8IasAudio16IasTestFrameworkD1Ev
libias-audio-testfwx.so.4:_ZN8IasAudio16IasTestFrameworkD2Ev
libias-audio-testfwx.so.4:_ZN8IasAudio20IasTestFrameworkPriv10processingEv
libias-audio-testfwx.so.4:_ZN8IasAudio20IasTestFrameworkPriv12getNextEventEPSt10shared_ptrINS_8IasEventEE
libias-audio-testfwx.so.4:_ZN8IasAudio20IasTestFrameworkPriv14createPipelineERKNS_17IasPipelineParamsE
libias-audio-testfwx.so.4:_ZN8IasAudio20IasTestFrameworkPriv30createTestFrameworkRoutingZoneEv
libias-audio-testfwx.so.4:_ZN8IasAudio20IasTestFrameworkPriv4initERKNS_17IasPipelineParamsE
libias-audio-testfwx.so.4:_ZN8IasAudio20IasTestFrameworkPriv4stopEv
libias-audio-testfwx.so.4:_ZN8IasAudio20IasTestFrameworkPriv5debugEv
libias-audio-testfwx.so.4:_ZN8IasAudio20IasTestFrameworkPriv5setupEv
libias-audio-testfwx.so.4:_ZN8IasAudio20IasTestFrameworkPriv5startEv
libias-audio-testfwx.so.4:_ZN8IasAudio20IasTestFrameworkPriv7processEj
libias-audio-testfwx.so.4:_ZN8IasAudio20IasTestFrameworkPrivC1Ev
libias-audio-testfwx.so.4:_ZN8IasAudio20IasTestFrameworkPrivC2Ev
libias-audio-testfwx.so.4:_ZN8IasAudio20IasTestFrameworkPrivD1Ev
libias-audio-testfwx.so.4:_ZN8IasAudio20IasTestFrameworkPrivD2Ev
libias-audio-testfwx.so.4:_ZN8IasAudio24IasTestFrameworkWaveFile10readFramesEPNS_12IasAudioAreaEjjRj
libias-audio-testfwx.so.4:_ZN8IasAudio24IasTestFrameworkWaveFile11writeFramesEPNS_12IasAudioAreaEjjRj
libias-audio-testfwx.so.4:_ZN8IasAudio24IasTestFrameworkWaveFile12linkAudioPinESt10shared_ptrINS_11IasAudioPinEE
libias-audio-testfwx.so.4:_ZN8IasAudio24IasTestFrameworkWaveFile14allocateMemoryEv
libias-audio-testfwx.so.4:_ZN8IasAudio24IasTestFrameworkWaveFile14openForReadingEj
libias-audio-testfwx.so.4:_ZN8IasAudio24IasTestFrameworkWaveFile14openForWritingEj
libias-audio-testfwx.so.4:_ZN8IasAudio24IasTestFrameworkWaveFile5closeEv
libias-audio-testfwx.so.4:_ZN8IasAudio24IasTestFrameworkWaveFile5resetEv
libias-audio-testfwx.so.4:_ZN8IasAudio24IasTestFrameworkWaveFileC1ESt10shared_ptrINS_30IasTestFrameworkWaveFileParamsEE
libias-audio-testfwx.so.4:_ZN8IasAudio24IasTestFrameworkWaveFileC2ESt10shared_ptrINS_30IasTestFrameworkWaveFileParamsEE
libias-audio-testfwx.so.4:_ZN8IasAudio24IasTestFrameworkWaveFileD1Ev
libias-audio-testfwx.so.4:_ZN8IasAudio24IasTestFrameworkWaveFileD2Ev
libias-audio-testfwx.so.4:_ZN8IasAudio25IasTestFrameworkSetupImpl12linkWaveFileESt10shared_ptrINS_11IasAudioPinEERNS_30IasTestFrameworkWaveFileParamsE
libias-audio-testfwx.so.4:_ZN8IasAudio25IasTestFrameworkSetupImpl13setPropertiesESt10shared_ptrINS_19IasProcessingModuleEERKNS_13IasPropertiesE
libias-audio-testfwx.so.4:_ZN8IasAudio25IasTestFrameworkSetupImpl14createAudioPinERKNS_17IasAudioPinParamsEPSt10shared_ptrINS_11IasAudioPinEE
libias-audio-testfwx.so.4:_ZN8IasAudio25IasTestFrameworkSetupImpl14unlinkWaveFileESt10shared_ptrINS_11IasAudioPinEE
libias-audio-testfwx.so.4:_ZN8IasAudio25IasTestFrameworkSetupImpl15createAudioPortERKNS_18IasAudioPortParamsEPSt10shared_ptrINS_12IasAudioPortEE
libias-audio-testfwx.so.4:_ZN8IasAudio25IasTestFrameworkSetupImpl15destroyAudioPinEPSt10shared_ptrINS_11IasAudioPinEE
libias-audio-testfwx.so.4:_ZN8IasAudio25IasTestFrameworkSetupImpl16addAudioInOutPinESt10shared_ptrINS_19IasProcessingModuleEES1_INS_11IasAudioPinEE
libias-audio-testfwx.so.4:_ZN8IasAudio25IasTestFrameworkSetupImpl16addAudioInputPinESt10shared_ptrINS_11IasAudioPinEE
libias-audio-testfwx.so.4:_ZN8IasAudio25IasTestFrameworkSetupImpl16destroyAudioPortESt10shared_ptrINS_12IasAudioPortEE
libias-audio-testfwx.so.4:_ZN8IasAudio25IasTestFrameworkSetupImpl17addAudioOutputPinESt10shared_ptrINS_11IasAudioPinEE
libias-audio-testfwx.so.4:_ZN8IasAudio25IasTestFrameworkSetupImpl18addAudioPinMappingESt10shared_ptrINS_19IasProcessingModuleEES1_INS_11IasAudioPinEES5_
libias-audio-testfwx.so.4:_ZN8IasAudio25IasTestFrameworkSetupImpl19addProcessingModuleESt10shared_ptrINS_19IasProcessingModuleEE
libias-audio-testfwx.so.4:_ZN8IasAudio25IasTestFrameworkSetupImpl19deleteAudioInOutPinESt10shared_ptrINS_19IasProcessingModuleEES1_INS_11IasAudioPinEE
libias-audio-testfwx.so.4:_ZN8IasAudio25IasTestFrameworkSetupImpl19deleteAudioInputPinESt10shared_ptrINS_11IasAudioPinEE
libias-audio-testfwx.so.4:_ZN8IasAudio25IasTestFrameworkSetupImpl20deleteAudioOutputPinESt10shared_ptrINS_11IasAudioPinEE
libias-audio-testfwx.so.4:_ZN8IasAudio25IasTestFrameworkSetupImpl21deleteAudioPinMappingESt10shared_ptrINS_19IasProcessingModuleEES1_INS_11IasAudioPinEES5_
libias-audio-testfwx.so.4:_ZN8IasAudio25IasTestFrameworkSetupImpl22createProcessingModuleERKNS_25IasProcessingModuleParamsEPSt10shared_ptrINS_19IasProcessingModuleEE
libias-audio-testfwx.so.4:_ZN8IasAudio25IasTestFrameworkSetupImpl22deleteProcessingModuleESt10shared_ptrINS_19IasProcessingModuleEE
libias-audio-testfwx.so.4:_ZN8IasAudio25IasTestFrameworkSetupImpl23destroyProcessingModuleEPSt10shared_ptrINS_19IasProcessingModuleEE
libias-audio-testfwx.so.4:_ZN8IasAudio25IasTestFrameworkSetupImpl4linkESt10shared_ptrINS_11IasAudioPinEES3_NS_19IasAudioPinLinkTypeE
libias-audio-testfwx.so.4:_ZN8IasAudio25IasTestFrameworkSetupImpl4linkESt10shared_ptrINS_12IasAudioPortEES1_INS_11IasAudioPinEE
libias-audio-testfwx.so.4:_ZN8IasAudio25IasTestFrameworkSetupImpl4linkESt10shared_ptrINS_12IasAudioPortEES1_INS_24IasTestFrameworkWaveFileEE
libias-audio-testfwx.so.4:_ZN8IasAudio25IasTestFrameworkSetupImpl6unlinkESt10shared_ptrINS_11IasAudioPinEES3_
libias-audio-testfwx.so.4:_ZN8IasAudio25IasTestFrameworkSetupImpl6unlinkESt10shared_ptrINS_12IasAudioPortEES1_INS_11IasAudioPinEE
libias-audio-testfwx.so.4:_ZN8IasAudio25IasTestFrameworkSetupImpl6unlinkESt10shared_ptrINS_12IasAudioPortEES1_INS_24IasTestFrameworkWaveFileEE
libias-audio-testfwx.so.4:_ZN8IasAudio25IasTestFrameworkSetupImplC1ESt10shared_ptrINS_29IasTestFrameworkConfigurationEE
libias-audio-testfwx.so.4:_ZN8IasAudio25IasTestFrameworkSetupImplC2ESt10shared_ptrINS_29IasTestFrameworkConfigurationEE
libias-audio-testfwx.so.4:_ZN8IasAudio25IasTestFrameworkSetupImplD0Ev
libias-audio-testfwx.so.4:_ZN8IasAudio25IasTestFrameworkSetupImplD1Ev
libias-audio-testfwx.so.4:_ZN8IasAudio25IasTestFrameworkSetupImplD2Ev
libias-audio-testfwx.so.4:_ZN8IasAudio27IasTestFrameworkRoutingZone11addPipelineESt10shared_ptrINS_11IasPipelineEE
libias-audio-testfwx.so.4:_ZN8IasAudio27IasTestFrameworkRoutingZone14deletePipelineEv
libias-audio-testfwx.so.4:_ZN8IasAudio27IasTestFrameworkRoutingZone14processPeriodsEj
libias-audio-testfwx.so.4:_ZN8IasAudio27IasTestFrameworkRoutingZone14transferPeriodEv
libias-audio-testfwx.so.4:_ZN8IasAudio27IasTestFrameworkRoutingZone16createRingBufferESt10shared_ptrINS_12IasAudioPortEENS_24IasAudioCommonDataFormatEPPNS_18IasAudioRingBufferE
libias-audio-testfwx.so.4:_ZN8IasAudio27IasTestFrameworkRoutingZone17createInputBufferESt10shared_ptrINS_12IasAudioPortEENS_24IasAudioCommonDataFormatES1_INS_24IasTestFrameworkWaveFileEEPPNS_18IasAudioRingBufferE
libias-audio-testfwx.so.4:_ZN8IasAudio27IasTestFrameworkRoutingZone18createOutputBufferESt10shared_ptrINS_12IasAudioPortEENS_24IasAudioCommonDataFormatES1_INS_24IasTestFrameworkWaveFileEEPPNS_18IasAudioRingBufferE
libias-audio-testfwx.so.4:_ZN8IasAudio27IasTestFrameworkRoutingZone18destroyInputBufferESt10shared_ptrINS_12IasAudioPortEE
libias-audio-testfwx.so.4:_ZN8IasAudio27IasTestFrameworkRoutingZone19destroyOutputBufferESt10shared_ptrINS_12IasAudioPortEE
libias-audio-testfwx.so.4:_ZN8IasAudio27IasTestFrameworkRoutingZone20readDataFromWaveFileESt10shared_ptrINS_24IasTestFrameworkWaveFileEEPNS_18IasAudioRingBufferEjRj
libias-audio-testfwx.so.4:_ZN8IasAudio27IasTestFrameworkRoutingZone21writeDataIntoWaveFileESt10shared_ptrINS_24IasTestFrameworkWaveFileEEPNS_18IasAudioRingBufferEjRj
libias-audio-testfwx.so.4:_ZN8IasAudio27IasTestFrameworkRoutingZone24retrieveDataFromPipelineESt10shared_ptrINS_18IasAudioSinkDeviceEEPNS_18IasAudioRingBufferEj
libias-audio-testfwx.so.4:_ZN8IasAudio27IasTestFrameworkRoutingZone4initEv
libias-audio-testfwx.so.4:_ZN8IasAudio27IasTestFrameworkRoutingZone4stopEv
libias-audio-testfwx.so.4:_ZN8IasAudio27IasTestFrameworkRoutingZone5startEv
libias-audio-testfwx.so.4:_ZN8IasAudio27IasTestFrameworkRoutingZoneC1ESt10shared_ptrINS_33IasTestFrameworkRoutingZoneParamsEE
libias-audio-testfwx.so.4:_ZN8IasAudio27IasTestFrameworkRoutingZoneC2ESt10shared_ptrINS_33IasTestFrameworkRoutingZoneParamsEE
libias-audio-testfwx.so.4:_ZN8IasAudio27IasTestFrameworkRoutingZoneD1Ev
libias-audio-testfwx.so.4:_ZN8IasAudio27IasTestFrameworkRoutingZoneD2Ev
libias-audio-testfwx.so.4:_ZN8IasAudio29IasTestFrameworkConfiguration11addWaveFileESt10shared_ptrINS_11IasAudioPinEES1_INS_24IasTestFrameworkWaveFileEE
libias-audio-testfwx.so.4:_ZN8IasAudio29IasTestFrameworkConfiguration11getWaveFileESt10shared_ptrINS_11IasAudioPinEEPS1_INS_24IasTestFrameworkWaveFileEE
libias-audio-testfwx.so.4:_ZN8IasAudio29IasTestFrameworkConfiguration14deleteWaveFileESt10shared_ptrINS_11IasAudioPinEE
libias-audio-testfwx.so.4:_ZN8IasAudio29IasTestFrameworkConfiguration24addTestFrameworkPipelineESt10shared_ptrINS_11IasPipelineEE
libias-audio-testfwx.so.4:_ZN8IasAudio29IasTestFrameworkConfiguration27addTestFrameworkRoutingZoneESt10shared_ptrINS_27IasTestFrameworkRoutingZoneEE
libias-audio-testfwx.so.4:_ZN8IasAudio29IasTestFrameworkConfiguration27deleteTestFrameworkPipelineEv
libias-audio-testfwx.so.4:_ZN8IasAudio29IasTestFrameworkConfiguration30deleteTestFrameworkRoutingZoneEv
libias-audio-testfwx.so.4:_ZN8IasAudio29IasTestFrameworkConfigurationC1Ev
libias-audio-testfwx.so.4:_ZN8IasAudio29IasTestFrameworkConfigurationC2Ev
libias-audio-testfwx.so.4:_ZN8IasAudio29IasTestFrameworkConfigurationD1Ev
libias-audio-testfwx.so.4:_ZN8IasAudio29IasTestFrameworkConfigurationD2Ev
libias-audio-testfwx.so.4:_ZN8IasAudio8toStringB5cxx11ERKNS_16IasTestFramework9IasResultE
libias-audio-testfwx.so.4:_ZN8IasAudio8toStringB5cxx11ERKNS_21IasTestFrameworkSetup9IasResultE
libias-audio-testfwx.so.4:_ZN8IasAudio8toStringB5cxx11ERKNS_24IasTestFrameworkWaveFile9IasResultE
libias-audio-testfwx.so.4:_ZN8IasAudio8toStringB5cxx11ERKNS_27IasTestFrameworkRoutingZone9IasResultE
libias-audio-testfwx.so.4:_ZN8IasAudio9translateENS_12IasAudioPort9IasResultE
libias-audio-testfwx.so.4:_ZN8IasAudio9translateENS_16IasConfiguration9IasResultE
libias-audio-testfwx.so.4:_ZN8IasAudio9translateENS_24IasTestFrameworkWaveFile9IasResultE
libias-audio-testfwx.so.4:_ZN8IasAudio9translateENS_27IasTestFrameworkRoutingZone9IasResultE
libias-audio-testfwx.so.4:_ZNK8IasAudio16IasTestFramework12waitForEventEj
libias-audio-testfwx.so.4:_ZNK8IasAudio20IasTestFrameworkPriv12waitForEventEj
libias-audio-testfwx.so.4:_ZNK8IasAudio24IasTestFrameworkWaveFile11isInputFileEv
